
DigitalFryerDisplay8Seg-EncendidoManual.elf:     file format elf32-avr

Sections:
Idx Name          Size      VMA       LMA       File off  Algn
  0 .text         0000481a  00000000  00000000  000000b4  2**1
                  CONTENTS, ALLOC, LOAD, READONLY, CODE
  1 .data         000004b8  00800060  0000481a  000048ce  2**0
                  CONTENTS, ALLOC, LOAD, DATA
  2 .bss          000001dd  00800518  00800518  00004d86  2**0
                  ALLOC
  3 .eeprom       0000000a  00810000  00810000  00004d86  2**0
                  CONTENTS, ALLOC, LOAD, DATA
  4 .comment      00000012  00000000  00000000  00004d90  2**0
                  CONTENTS, READONLY
  5 .note.gnu.avr.deviceinfo 0000003c  00000000  00000000  00004da4  2**2
                  CONTENTS, READONLY, OCTETS
  6 .debug_aranges 000000c0  00000000  00000000  00004de0  2**3
                  CONTENTS, READONLY, DEBUGGING, OCTETS
  7 .debug_info   000005be  00000000  00000000  00004ea0  2**0
                  CONTENTS, READONLY, DEBUGGING, OCTETS
  8 .debug_abbrev 0000051b  00000000  00000000  0000545e  2**0
                  CONTENTS, READONLY, DEBUGGING, OCTETS
  9 .debug_line   00000389  00000000  00000000  00005979  2**0
                  CONTENTS, READONLY, DEBUGGING, OCTETS
 10 .debug_str    000001f8  00000000  00000000  00005d02  2**0
                  CONTENTS, READONLY, DEBUGGING, OCTETS
 11 .debug_line_str 00000053  00000000  00000000  00005efa  2**0
                  CONTENTS, READONLY, DEBUGGING, OCTETS

Disassembly of section .text:

00000000 <__vectors>:
       0:	0c 94 2a 00 	jmp	0x54	; 0x54 <__ctors_end>
       4:	0c 94 47 00 	jmp	0x8e	; 0x8e <__bad_interrupt>
       8:	0c 94 47 00 	jmp	0x8e	; 0x8e <__bad_interrupt>
       c:	0c 94 47 00 	jmp	0x8e	; 0x8e <__bad_interrupt>
      10:	0c 94 47 00 	jmp	0x8e	; 0x8e <__bad_interrupt>
      14:	0c 94 47 00 	jmp	0x8e	; 0x8e <__bad_interrupt>
      18:	0c 94 47 00 	jmp	0x8e	; 0x8e <__bad_interrupt>
      1c:	0c 94 47 00 	jmp	0x8e	; 0x8e <__bad_interrupt>
      20:	0c 94 47 00 	jmp	0x8e	; 0x8e <__bad_interrupt>
      24:	0c 94 47 00 	jmp	0x8e	; 0x8e <__bad_interrupt>
      28:	0c 94 83 19 	jmp	0x3306	; 0x3306 <__vector_10>
      2c:	0c 94 47 00 	jmp	0x8e	; 0x8e <__bad_interrupt>
      30:	0c 94 47 00 	jmp	0x8e	; 0x8e <__bad_interrupt>
      34:	0c 94 47 00 	jmp	0x8e	; 0x8e <__bad_interrupt>
      38:	0c 94 47 00 	jmp	0x8e	; 0x8e <__bad_interrupt>
      3c:	0c 94 47 00 	jmp	0x8e	; 0x8e <__bad_interrupt>
      40:	0c 94 8f 19 	jmp	0x331e	; 0x331e <__vector_16>
      44:	0c 94 47 00 	jmp	0x8e	; 0x8e <__bad_interrupt>
      48:	0c 94 47 00 	jmp	0x8e	; 0x8e <__bad_interrupt>
      4c:	0c 94 47 00 	jmp	0x8e	; 0x8e <__bad_interrupt>
      50:	0c 94 47 00 	jmp	0x8e	; 0x8e <__bad_interrupt>

00000054 <__ctors_end>:
      54:	11 24       	eor	r1, r1
      56:	1f be       	out	0x3f, r1	; 63
      58:	cf e5       	ldi	r28, 0x5F	; 95
      5a:	d8 e0       	ldi	r29, 0x08	; 8
      5c:	de bf       	out	0x3e, r29	; 62
      5e:	cd bf       	out	0x3d, r28	; 61

00000060 <__do_copy_data>:
      60:	15 e0       	ldi	r17, 0x05	; 5

00000062 <.Loc.1>:
      62:	a0 e6       	ldi	r26, 0x60	; 96

00000064 <.Loc.2>:
      64:	b0 e0       	ldi	r27, 0x00	; 0

00000066 <.Loc.3>:
      66:	ea e1       	ldi	r30, 0x1A	; 26

00000068 <.Loc.4>:
      68:	f8 e4       	ldi	r31, 0x48	; 72

0000006a <.Loc.5>:
      6a:	02 c0       	rjmp	.+4      	; 0x70 <.L__do_copy_data_start>

0000006c <.L__do_copy_data_loop>:
      6c:	05 90       	lpm	r0, Z+

0000006e <.Loc.7>:
      6e:	0d 92       	st	X+, r0

00000070 <.L__do_copy_data_start>:
      70:	a8 31       	cpi	r26, 0x18	; 24

00000072 <.Loc.9>:
      72:	b1 07       	cpc	r27, r17

00000074 <.Loc.10>:
      74:	d9 f7       	brne	.-10     	; 0x6c <.L__do_copy_data_loop>

00000076 <__do_clear_bss>:
      76:	26 e0       	ldi	r18, 0x06	; 6

00000078 <.Loc.1>:
      78:	a8 e1       	ldi	r26, 0x18	; 24

0000007a <.Loc.2>:
      7a:	b5 e0       	ldi	r27, 0x05	; 5

0000007c <.Loc.3>:
      7c:	01 c0       	rjmp	.+2      	; 0x80 <.Loc.5>

0000007e <.Loc.4>:
      7e:	1d 92       	st	X+, r1

00000080 <.Loc.5>:
      80:	a5 3f       	cpi	r26, 0xF5	; 245

00000082 <.Loc.6>:
      82:	b2 07       	cpc	r27, r18

00000084 <.Loc.7>:
      84:	e1 f7       	brne	.-8      	; 0x7e <.Loc.4>

00000086 <L0^A>:
      86:	0e 94 08 17 	call	0x2e10	; 0x2e10 <main>
      8a:	0c 94 0b 24 	jmp	0x4816	; 0x4816 <_exit>

0000008e <__bad_interrupt>:
      8e:	0c 94 00 00 	jmp	0	; 0x0 <__vectors>

00000092 <integer_to_arraybcd_msb_lsb>:
      92:	8f 92       	push	r8
      94:	9f 92       	push	r9
      96:	af 92       	push	r10
      98:	bf 92       	push	r11
      9a:	cf 92       	push	r12
      9c:	df 92       	push	r13
      9e:	ef 92       	push	r14
      a0:	ff 92       	push	r15
      a2:	0f 93       	push	r16
      a4:	1f 93       	push	r17
      a6:	cf 93       	push	r28
      a8:	df 93       	push	r29
      aa:	ac 01       	movw	r20, r24
      ac:	4b 01       	movw	r8, r22
      ae:	80 e0       	ldi	r24, 0x00	; 0
      b0:	90 e0       	ldi	r25, 0x00	; 0
      b2:	57 fd       	sbrc	r21, 7
      b4:	77 c0       	rjmp	.+238    	; 0x1a4 <.L1>
      b6:	fb 01       	movw	r30, r22
      b8:	db 01       	movw	r26, r22
      ba:	80 e0       	ldi	r24, 0x00	; 0
      bc:	90 e0       	ldi	r25, 0x00	; 0
      be:	1d ec       	ldi	r17, 0xCD	; 205
      c0:	a1 2e       	mov	r10, r17
      c2:	6d ec       	ldi	r22, 0xCD	; 205
      c4:	7c ec       	ldi	r23, 0xCC	; 204
      c6:	05 e0       	ldi	r16, 0x05	; 5
      c8:	b0 2e       	mov	r11, r16

000000ca <.L5>:
      ca:	35 2f       	mov	r19, r21
      cc:	33 0f       	add	r19, r19
      ce:	33 0b       	sbc	r19, r19
      d0:	23 2f       	mov	r18, r19
      d2:	23 70       	andi	r18, 0x03	; 3
      d4:	f2 2e       	mov	r15, r18
      d6:	8a 01       	movw	r16, r20
      d8:	12 95       	swap	r17
      da:	02 95       	swap	r16
      dc:	0f 70       	andi	r16, 0x0F	; 15
      de:	01 27       	eor	r16, r17
      e0:	1f 70       	andi	r17, 0x0F	; 15
      e2:	01 27       	eor	r16, r17
      e4:	0f 70       	andi	r16, 0x0F	; 15
      e6:	24 2f       	mov	r18, r20
      e8:	2f 70       	andi	r18, 0x0F	; 15
      ea:	20 0f       	add	r18, r16
      ec:	15 2f       	mov	r17, r21
      ee:	1f 70       	andi	r17, 0x0F	; 15
      f0:	21 0f       	add	r18, r17
      f2:	15 2f       	mov	r17, r21
      f4:	12 95       	swap	r17
      f6:	1f 70       	andi	r17, 0x0F	; 15
      f8:	21 0f       	add	r18, r17
      fa:	2f 0d       	add	r18, r15
      fc:	2a 9d       	mul	r18, r10
      fe:	11 2d       	mov	r17, r1
     100:	11 24       	eor	r1, r1
     102:	01 2f       	mov	r16, r17
     104:	06 95       	lsr	r16
     106:	06 95       	lsr	r16
     108:	1c 7f       	andi	r17, 0xFC	; 252
     10a:	10 0f       	add	r17, r16
     10c:	21 1b       	sub	r18, r17
     10e:	3c 7f       	andi	r19, 0xFC	; 252
     110:	23 0f       	add	r18, r19
     112:	02 2e       	mov	r0, r18
     114:	00 0c       	add	r0, r0
     116:	33 0b       	sbc	r19, r19
     118:	7a 01       	movw	r14, r20
     11a:	e2 1a       	sub	r14, r18
     11c:	f3 0a       	sbc	r15, r19
     11e:	e6 9e       	mul	r14, r22
     120:	80 01       	movw	r16, r0
     122:	e7 9e       	mul	r14, r23
     124:	10 0d       	add	r17, r0
     126:	f6 9e       	mul	r15, r22
     128:	10 0d       	add	r17, r0
     12a:	11 24       	eor	r1, r1
     12c:	78 01       	movw	r14, r16
     12e:	c1 e0       	ldi	r28, 0x01	; 1
     130:	ec 22       	and	r14, r28
     132:	c0 e8       	ldi	r28, 0x80	; 128
     134:	fc 22       	and	r15, r28
     136:	17 ff       	sbrs	r17, 7
     138:	0a c0       	rjmp	.+20     	; 0x14e <.L3>
     13a:	d1 e0       	ldi	r29, 0x01	; 1
     13c:	ed 1a       	sub	r14, r29
     13e:	f1 08       	sbc	r15, r1
     140:	ce ef       	ldi	r28, 0xFE	; 254
     142:	ec 2a       	or	r14, r28
     144:	ff 24       	eor	r15, r15
     146:	fa 94       	dec	r15
     148:	df ef       	ldi	r29, 0xFF	; 255
     14a:	ed 1a       	sub	r14, r29
     14c:	fd 0a       	sbc	r15, r29

0000014e <.L3>:
     14e:	be 9c       	mul	r11, r14
     150:	60 01       	movw	r12, r0
     152:	bf 9c       	mul	r11, r15
     154:	d0 0c       	add	r13, r0
     156:	11 24       	eor	r1, r1
     158:	2c 0d       	add	r18, r12
     15a:	3d 1d       	adc	r19, r13
     15c:	17 ff       	sbrs	r17, 7
     15e:	02 c0       	rjmp	.+4      	; 0x164 <.L4>
     160:	0f 5f       	subi	r16, 0xFF	; 255
     162:	1f 4f       	sbci	r17, 0xFF	; 255

00000164 <.L4>:
     164:	01 96       	adiw	r24, 0x01	; 1
     166:	2d 93       	st	X+, r18
     168:	9a 01       	movw	r18, r20
     16a:	a8 01       	movw	r20, r16
     16c:	55 95       	asr	r21
     16e:	47 95       	ror	r20
     170:	2a 30       	cpi	r18, 0x0A	; 10
     172:	31 05       	cpc	r19, r1
     174:	0c f0       	brlt	.+2      	; 0x178 <L0^A+0x2>

00000176 <L0^A>:
     176:	a9 cf       	rjmp	.-174    	; 0xca <.L5>
     178:	9c 01       	movw	r18, r24
     17a:	35 95       	asr	r19
     17c:	27 95       	ror	r18
     17e:	21 15       	cp	r18, r1
     180:	31 05       	cpc	r19, r1
     182:	81 f0       	breq	.+32     	; 0x1a4 <.L1>
     184:	dc 01       	movw	r26, r24
     186:	a8 0d       	add	r26, r8
     188:	b9 1d       	adc	r27, r9
     18a:	82 0e       	add	r8, r18
     18c:	93 1e       	adc	r9, r19

0000018e <.L7>:
     18e:	21 91       	ld	r18, Z+
     190:	3e 91       	ld	r19, -X
     192:	af 01       	movw	r20, r30
     194:	41 50       	subi	r20, 0x01	; 1
     196:	51 09       	sbc	r21, r1
     198:	ea 01       	movw	r28, r20
     19a:	38 83       	st	Y, r19
     19c:	2c 93       	st	X, r18
     19e:	e8 15       	cp	r30, r8
     1a0:	f9 05       	cpc	r31, r9
     1a2:	a9 f7       	brne	.-22     	; 0x18e <.L7>

000001a4 <.L1>:
     1a4:	df 91       	pop	r29
     1a6:	cf 91       	pop	r28
     1a8:	1f 91       	pop	r17
     1aa:	0f 91       	pop	r16
     1ac:	ff 90       	pop	r15
     1ae:	ef 90       	pop	r14
     1b0:	df 90       	pop	r13
     1b2:	cf 90       	pop	r12
     1b4:	bf 90       	pop	r11
     1b6:	af 90       	pop	r10
     1b8:	9f 90       	pop	r9
     1ba:	8f 90       	pop	r8
     1bc:	08 95       	ret

000001be <paddingLeftw_>:
     1be:	8f 92       	push	r8
     1c0:	9f 92       	push	r9
     1c2:	af 92       	push	r10
     1c4:	bf 92       	push	r11
     1c6:	df 92       	push	r13
     1c8:	ef 92       	push	r14
     1ca:	ff 92       	push	r15
     1cc:	0f 93       	push	r16
     1ce:	1f 93       	push	r17
     1d0:	cf 93       	push	r28
     1d2:	df 93       	push	r29
     1d4:	8c 01       	movw	r16, r24
     1d6:	eb 01       	movw	r28, r22
     1d8:	d4 2e       	mov	r13, r20
     1da:	fc 01       	movw	r30, r24

000001dc <.L^B1>:
     1dc:	01 90       	ld	r0, Z+
     1de:	00 20       	and	r0, r0
     1e0:	e9 f7       	brne	.-6      	; 0x1dc <.L^B1>
     1e2:	31 97       	sbiw	r30, 0x01	; 1
     1e4:	e8 1b       	sub	r30, r24
     1e6:	f9 0b       	sbc	r31, r25
     1e8:	6e 17       	cp	r22, r30
     1ea:	7f 07       	cpc	r23, r31
     1ec:	a8 f1       	brcs	.+106    	; 0x258 <.L24>
     1ee:	1c 16       	cp	r1, r28
     1f0:	1d 06       	cpc	r1, r29
     1f2:	94 f5       	brge	.+100    	; 0x258 <.L24>
     1f4:	fc 01       	movw	r30, r24
     1f6:	80 e0       	ldi	r24, 0x00	; 0
     1f8:	90 e0       	ldi	r25, 0x00	; 0
     1fa:	04 c0       	rjmp	.+8      	; 0x204 <.L18>

000001fc <.L28>:
     1fc:	01 96       	adiw	r24, 0x01	; 1
     1fe:	c8 17       	cp	r28, r24
     200:	d9 07       	cpc	r29, r25
     202:	51 f1       	breq	.+84     	; 0x258 <.L24>

00000204 <.L18>:
     204:	21 91       	ld	r18, Z+
     206:	21 11       	cpse	r18, r1
     208:	f9 cf       	rjmp	.-14     	; 0x1fc <.L28>
     20a:	00 97       	sbiw	r24, 0x00	; 0
     20c:	29 f1       	breq	.+74     	; 0x258 <.L24>
     20e:	c8 17       	cp	r28, r24
     210:	d9 07       	cpc	r29, r25
     212:	11 f1       	breq	.+68     	; 0x258 <.L24>
     214:	f8 01       	movw	r30, r16
     216:	ec 0f       	add	r30, r28
     218:	fd 1f       	adc	r31, r29
     21a:	10 82       	st	Z, r1
     21c:	5e 01       	movw	r10, r28
     21e:	a8 1a       	sub	r10, r24
     220:	b9 0a       	sbc	r11, r25
     222:	e1 2c       	mov	r14, r1
     224:	f1 2c       	mov	r15, r1
     226:	c8 01       	movw	r24, r16
     228:	01 97       	sbiw	r24, 0x01	; 1
     22a:	4c 01       	movw	r8, r24
     22c:	1a 14       	cp	r1, r10
     22e:	1b 04       	cpc	r1, r11
     230:	8c f4       	brge	.+34     	; 0x254 <.L20>

00000232 <.L19>:
     232:	ae 01       	movw	r20, r28
     234:	b4 01       	movw	r22, r8
     236:	c8 01       	movw	r24, r16
     238:	0e 94 a9 23 	call	0x4752	; 0x4752 <memmove>
     23c:	9f ef       	ldi	r25, 0xFF	; 255
     23e:	e9 1a       	sub	r14, r25
     240:	f9 0a       	sbc	r15, r25
     242:	ea 14       	cp	r14, r10
     244:	fb 04       	cpc	r15, r11
     246:	a9 f7       	brne	.-22     	; 0x232 <.L19>
     248:	6d 2d       	mov	r22, r13
     24a:	70 e0       	ldi	r23, 0x00	; 0
     24c:	a7 01       	movw	r20, r14
     24e:	c8 01       	movw	r24, r16
     250:	0e 94 bb 23 	call	0x4776	; 0x4776 <memset>

00000254 <.L20>:
     254:	81 e0       	ldi	r24, 0x01	; 1
     256:	01 c0       	rjmp	.+2      	; 0x25a <.L15>

00000258 <.L24>:
     258:	80 e0       	ldi	r24, 0x00	; 0

0000025a <.L15>:
     25a:	df 91       	pop	r29
     25c:	cf 91       	pop	r28
     25e:	1f 91       	pop	r17
     260:	0f 91       	pop	r16
     262:	ff 90       	pop	r15
     264:	ef 90       	pop	r14
     266:	df 90       	pop	r13
     268:	bf 90       	pop	r11
     26a:	af 90       	pop	r10
     26c:	9f 90       	pop	r9
     26e:	8f 90       	pop	r8
     270:	08 95       	ret

00000272 <paddingLeftwZeroes>:
     272:	40 e3       	ldi	r20, 0x30	; 48
     274:	0c 94 df 00 	jmp	0x1be	; 0x1be <paddingLeftw_>

00000278 <paddingLeftwBlanks>:
     278:	40 e2       	ldi	r20, 0x20	; 32
     27a:	0c 94 df 00 	jmp	0x1be	; 0x1be <paddingLeftw_>

0000027e <time_set>:
     27e:	08 95       	ret

00000280 <time_dec>:
     280:	fc 01       	movw	r30, r24
     282:	81 81       	ldd	r24, Z+1	; 0x01
     284:	81 11       	cpse	r24, r1
     286:	09 c0       	rjmp	.+18     	; 0x29a <.L4>
     288:	80 81       	ld	r24, Z
     28a:	88 23       	and	r24, r24
     28c:	81 f0       	breq	.+32     	; 0x2ae <.L15>

0000028e <.L6>:
     28e:	9b e3       	ldi	r25, 0x3B	; 59
     290:	91 83       	std	Z+1, r25	; 0x01
     292:	81 50       	subi	r24, 0x01	; 1
     294:	80 83       	st	Z, r24
     296:	80 e0       	ldi	r24, 0x00	; 0
     298:	08 95       	ret

0000029a <.L4>:
     29a:	81 50       	subi	r24, 0x01	; 1
     29c:	81 83       	std	Z+1, r24	; 0x01
     29e:	81 11       	cpse	r24, r1
     2a0:	08 c0       	rjmp	.+16     	; 0x2b2 <.L7>
     2a2:	81 e0       	ldi	r24, 0x01	; 1
     2a4:	90 81       	ld	r25, Z
     2a6:	99 23       	and	r25, r25
     2a8:	19 f0       	breq	.+6      	; 0x2b0 <.L3>

000002aa <.L10>:
     2aa:	80 e0       	ldi	r24, 0x00	; 0
     2ac:	08 95       	ret

000002ae <.L15>:
     2ae:	81 e0       	ldi	r24, 0x01	; 1

000002b0 <.L3>:
     2b0:	08 95       	ret

000002b2 <.L7>:
     2b2:	87 ff       	sbrs	r24, 7
     2b4:	fa cf       	rjmp	.-12     	; 0x2aa <.L10>
     2b6:	80 81       	ld	r24, Z
     2b8:	ea cf       	rjmp	.-44     	; 0x28e <.L6>

000002ba <time_inc>:
     2ba:	fc 01       	movw	r30, r24
     2bc:	81 81       	ldd	r24, Z+1	; 0x01
     2be:	90 81       	ld	r25, Z
     2c0:	8b 33       	cpi	r24, 0x3B	; 59
     2c2:	79 f0       	breq	.+30     	; 0x2e2 <.L29>
     2c4:	9c 33       	cpi	r25, 0x3C	; 60
     2c6:	7c f4       	brge	.+30     	; 0x2e6 <.L25>
     2c8:	9b 33       	cpi	r25, 0x3B	; 59
     2ca:	79 f0       	breq	.+30     	; 0x2ea <.L30>
     2cc:	21 e0       	ldi	r18, 0x01	; 1
     2ce:	28 0f       	add	r18, r24
     2d0:	21 83       	std	Z+1, r18	; 0x01
     2d2:	8b 53       	subi	r24, 0x3B	; 59
     2d4:	84 34       	cpi	r24, 0x44	; 68
     2d6:	18 f4       	brcc	.+6      	; 0x2de <.L22>

000002d8 <.L19>:
     2d8:	11 82       	std	Z+1, r1	; 0x01
     2da:	9f 5f       	subi	r25, 0xFF	; 255
     2dc:	90 83       	st	Z, r25

000002de <.L22>:
     2de:	80 e0       	ldi	r24, 0x00	; 0
     2e0:	08 95       	ret

000002e2 <.L29>:
     2e2:	9b 33       	cpi	r25, 0x3B	; 59
     2e4:	cc f3       	brlt	.-14     	; 0x2d8 <.L19>

000002e6 <.L25>:
     2e6:	81 e0       	ldi	r24, 0x01	; 1

000002e8 <.L16>:
     2e8:	08 95       	ret

000002ea <.L30>:
     2ea:	8c 33       	cpi	r24, 0x3C	; 60
     2ec:	e4 f7       	brge	.-8      	; 0x2e6 <.L25>
     2ee:	91 e0       	ldi	r25, 0x01	; 1
     2f0:	98 0f       	add	r25, r24
     2f2:	91 83       	std	Z+1, r25	; 0x01
     2f4:	81 e0       	ldi	r24, 0x01	; 1
     2f6:	9b 33       	cpi	r25, 0x3B	; 59
     2f8:	91 f7       	brne	.-28     	; 0x2de <.L22>
     2fa:	f6 cf       	rjmp	.-20     	; 0x2e8 <.L16>

000002fc <smoothAlg_nonblock>:
     2fc:	6f 92       	push	r6
     2fe:	7f 92       	push	r7
     300:	8f 92       	push	r8
     302:	9f 92       	push	r9
     304:	af 92       	push	r10
     306:	bf 92       	push	r11
     308:	cf 92       	push	r12
     30a:	df 92       	push	r13
     30c:	ef 92       	push	r14
     30e:	ff 92       	push	r15
     310:	0f 93       	push	r16
     312:	1f 93       	push	r17
     314:	cf 93       	push	r28
     316:	df 93       	push	r29
     318:	cd b7       	in	r28, 0x3d	; 61
     31a:	de b7       	in	r29, 0x3e	; 62
     31c:	65 97       	sbiw	r28, 0x15	; 21
     31e:	0f b6       	in	r0, 0x3f	; 63
     320:	f8 94       	cli
     322:	de bf       	out	0x3e, r29	; 62
     324:	0f be       	out	0x3f, r0	; 63
     326:	cd bf       	out	0x3d, r28	; 61
     328:	89 87       	std	Y+9, r24	; 0x09
     32a:	9a 87       	std	Y+10, r25	; 0x0a
     32c:	fb 01       	movw	r30, r22
     32e:	8a 01       	movw	r16, r20
     330:	79 01       	movw	r14, r18
     332:	a9 85       	ldd	r26, Y+9	; 0x09
     334:	ba 85       	ldd	r27, Y+10	; 0x0a
     336:	8c 91       	ld	r24, X
     338:	81 11       	cpse	r24, r1
     33a:	81 c0       	rjmp	.+258    	; 0x43e <.L2>
     33c:	12 96       	adiw	r26, 0x02	; 2
     33e:	1c 92       	st	X, r1
     340:	1e 92       	st	-X, r1
     342:	11 97       	sbiw	r26, 0x01	; 1
     344:	81 e0       	ldi	r24, 0x01	; 1
     346:	8c 93       	st	X, r24
     348:	ee 24       	eor	r14, r14
     34a:	e3 94       	inc	r14
     34c:	f1 2c       	mov	r15, r1
     34e:	81 2c       	mov	r8, r1
     350:	91 2c       	mov	r9, r1
     352:	54 01       	movw	r10, r8

00000354 <.L3>:
     354:	80 81       	ld	r24, Z
     356:	91 81       	ldd	r25, Z+1	; 0x01
     358:	9c 01       	movw	r18, r24
     35a:	40 e0       	ldi	r20, 0x00	; 0
     35c:	50 e0       	ldi	r21, 0x00	; 0
     35e:	29 83       	std	Y+1, r18	; 0x01
     360:	3a 83       	std	Y+2, r19	; 0x02
     362:	4b 83       	std	Y+3, r20	; 0x03
     364:	5c 83       	std	Y+4, r21	; 0x04
     366:	ca 01       	movw	r24, r20
     368:	b9 01       	movw	r22, r18
     36a:	0e 94 85 22 	call	0x450a	; 0x450a <__floatunsisf>
     36e:	a5 01       	movw	r20, r10
     370:	94 01       	movw	r18, r8
     372:	69 83       	std	Y+1, r22	; 0x01
     374:	7a 83       	std	Y+2, r23	; 0x02
     376:	8b 83       	std	Y+3, r24	; 0x03
     378:	9c 83       	std	Y+4, r25	; 0x04
     37a:	69 81       	ldd	r22, Y+1	; 0x01
     37c:	7a 81       	ldd	r23, Y+2	; 0x02
     37e:	8b 81       	ldd	r24, Y+3	; 0x03
     380:	9c 81       	ldd	r25, Y+4	; 0x04
     382:	0e 94 6c 21 	call	0x42d8	; 0x42d8 <__addsf3>
     386:	5b 01       	movw	r10, r22
     388:	6c 01       	movw	r12, r24
     38a:	ab 01       	movw	r20, r22
     38c:	bc 01       	movw	r22, r24
     38e:	a9 85       	ldd	r26, Y+9	; 0x09
     390:	ba 85       	ldd	r27, Y+10	; 0x0a
     392:	13 96       	adiw	r26, 0x03	; 3
     394:	4d 93       	st	X+, r20
     396:	5d 93       	st	X+, r21
     398:	6d 93       	st	X+, r22
     39a:	7c 93       	st	X, r23
     39c:	16 97       	sbiw	r26, 0x06	; 6
     39e:	e0 16       	cp	r14, r16
     3a0:	f1 06       	cpc	r15, r17
     3a2:	08 f4       	brcc	.+2      	; 0x3a6 <L0^A+0x2>

000003a4 <L0^A>:
     3a4:	de c0       	rjmp	.+444    	; 0x562 <.L20>
     3a6:	fd 01       	movw	r30, r26
     3a8:	12 82       	std	Z+2, r1	; 0x02
     3aa:	11 82       	std	Z+1, r1	; 0x01
     3ac:	98 01       	movw	r18, r16
     3ae:	11 0f       	add	r17, r17
     3b0:	44 0b       	sbc	r20, r20
     3b2:	55 0b       	sbc	r21, r21
     3b4:	29 83       	std	Y+1, r18	; 0x01
     3b6:	3a 83       	std	Y+2, r19	; 0x02
     3b8:	4b 83       	std	Y+3, r20	; 0x03
     3ba:	5c 83       	std	Y+4, r21	; 0x04
     3bc:	ca 01       	movw	r24, r20
     3be:	b9 01       	movw	r22, r18
     3c0:	0e 94 87 22 	call	0x450e	; 0x450e <__floatsisf>
     3c4:	9b 01       	movw	r18, r22
     3c6:	ac 01       	movw	r20, r24
     3c8:	a9 82       	std	Y+1, r10	; 0x01
     3ca:	ba 82       	std	Y+2, r11	; 0x02
     3cc:	cb 82       	std	Y+3, r12	; 0x03
     3ce:	dc 82       	std	Y+4, r13	; 0x04
     3d0:	69 81       	ldd	r22, Y+1	; 0x01
     3d2:	7a 81       	ldd	r23, Y+2	; 0x02
     3d4:	8b 81       	ldd	r24, Y+3	; 0x03
     3d6:	9c 81       	ldd	r25, Y+4	; 0x04
     3d8:	0e 94 dd 21 	call	0x43ba	; 0x43ba <__divsf3>
     3dc:	6d 87       	std	Y+13, r22	; 0x0d
     3de:	7e 87       	std	Y+14, r23	; 0x0e
     3e0:	8f 87       	std	Y+15, r24	; 0x0f
     3e2:	98 8b       	std	Y+16, r25	; 0x10
     3e4:	a9 85       	ldd	r26, Y+9	; 0x09
     3e6:	ba 85       	ldd	r27, Y+10	; 0x0a
     3e8:	13 96       	adiw	r26, 0x03	; 3
     3ea:	6d 93       	st	X+, r22
     3ec:	7d 93       	st	X+, r23
     3ee:	8d 93       	st	X+, r24
     3f0:	9c 93       	st	X, r25
     3f2:	16 97       	sbiw	r26, 0x06	; 6
     3f4:	18 96       	adiw	r26, 0x08	; 8
     3f6:	1c 92       	st	X, r1
     3f8:	1e 92       	st	-X, r1
     3fa:	17 97       	sbiw	r26, 0x07	; 7
     3fc:	1a 96       	adiw	r26, 0x0a	; 10
     3fe:	1c 92       	st	X, r1
     400:	1e 92       	st	-X, r1
     402:	19 97       	sbiw	r26, 0x09	; 9
     404:	fd 01       	movw	r30, r26
     406:	13 86       	std	Z+11, r1	; 0x0b
     408:	14 86       	std	Z+12, r1	; 0x0c
     40a:	15 86       	std	Z+13, r1	; 0x0d
     40c:	16 86       	std	Z+14, r1	; 0x0e
     40e:	82 e0       	ldi	r24, 0x02	; 2
     410:	80 83       	st	Z, r24

00000412 <.L6>:
     412:	80 e0       	ldi	r24, 0x00	; 0

00000414 <.L1>:
     414:	65 96       	adiw	r28, 0x15	; 21
     416:	0f b6       	in	r0, 0x3f	; 63
     418:	f8 94       	cli
     41a:	de bf       	out	0x3e, r29	; 62
     41c:	0f be       	out	0x3f, r0	; 63
     41e:	cd bf       	out	0x3d, r28	; 61
     420:	df 91       	pop	r29
     422:	cf 91       	pop	r28
     424:	1f 91       	pop	r17
     426:	0f 91       	pop	r16
     428:	ff 90       	pop	r15
     42a:	ef 90       	pop	r14
     42c:	df 90       	pop	r13
     42e:	cf 90       	pop	r12
     430:	bf 90       	pop	r11
     432:	af 90       	pop	r10
     434:	9f 90       	pop	r9
     436:	8f 90       	pop	r8
     438:	7f 90       	pop	r7
     43a:	6f 90       	pop	r6
     43c:	08 95       	ret

0000043e <.L2>:
     43e:	81 30       	cpi	r24, 0x01	; 1
     440:	09 f4       	brne	.+2      	; 0x444 <L0^A+0x2>

00000442 <L0^A>:
     442:	1d c1       	rjmp	.+570    	; 0x67e <.L21>
     444:	82 30       	cpi	r24, 0x02	; 2
     446:	29 f7       	brne	.-54     	; 0x412 <.L6>
     448:	11 96       	adiw	r26, 0x01	; 1
     44a:	ad 90       	ld	r10, X+
     44c:	bc 90       	ld	r11, X
     44e:	45 01       	movw	r8, r10
     450:	88 0c       	add	r8, r8
     452:	99 1c       	adc	r9, r9
     454:	86 0e       	add	r8, r22
     456:	97 1e       	adc	r9, r23
     458:	f4 01       	movw	r30, r8
     45a:	80 81       	ld	r24, Z
     45c:	91 81       	ldd	r25, Z+1	; 0x01
     45e:	9c 01       	movw	r18, r24
     460:	40 e0       	ldi	r20, 0x00	; 0
     462:	50 e0       	ldi	r21, 0x00	; 0
     464:	29 83       	std	Y+1, r18	; 0x01
     466:	3a 83       	std	Y+2, r19	; 0x02
     468:	4b 83       	std	Y+3, r20	; 0x03
     46a:	5c 83       	std	Y+4, r21	; 0x04
     46c:	ca 01       	movw	r24, r20
     46e:	b9 01       	movw	r22, r18
     470:	0e 94 85 22 	call	0x450a	; 0x450a <__floatunsisf>
     474:	3b 01       	movw	r6, r22
     476:	6c 01       	movw	r12, r24
     478:	a9 85       	ldd	r26, Y+9	; 0x09
     47a:	ba 85       	ldd	r27, Y+10	; 0x0a
     47c:	13 96       	adiw	r26, 0x03	; 3
     47e:	8d 91       	ld	r24, X+
     480:	9d 91       	ld	r25, X+
     482:	0d 90       	ld	r0, X+
     484:	bc 91       	ld	r27, X
     486:	a0 2d       	mov	r26, r0
     488:	8d 83       	std	Y+5, r24	; 0x05
     48a:	9e 83       	std	Y+6, r25	; 0x06
     48c:	af 83       	std	Y+7, r26	; 0x07
     48e:	b8 87       	std	Y+8, r27	; 0x08
     490:	9c 01       	movw	r18, r24
     492:	ad 01       	movw	r20, r26
     494:	69 82       	std	Y+1, r6	; 0x01
     496:	7a 82       	std	Y+2, r7	; 0x02
     498:	cb 82       	std	Y+3, r12	; 0x03
     49a:	dc 82       	std	Y+4, r13	; 0x04
     49c:	69 81       	ldd	r22, Y+1	; 0x01
     49e:	7a 81       	ldd	r23, Y+2	; 0x02
     4a0:	8b 81       	ldd	r24, Y+3	; 0x03
     4a2:	9c 81       	ldd	r25, Y+4	; 0x04
     4a4:	0e 94 37 23 	call	0x466e	; 0x466e <__gesf2>
     4a8:	18 16       	cp	r1, r24
     4aa:	dc f5       	brge	.+118    	; 0x522 <.L9>
     4ac:	e9 85       	ldd	r30, Y+9	; 0x09
     4ae:	fa 85       	ldd	r31, Y+10	; 0x0a
     4b0:	87 81       	ldd	r24, Z+7	; 0x07
     4b2:	90 85       	ldd	r25, Z+8	; 0x08
     4b4:	01 96       	adiw	r24, 0x01	; 1
     4b6:	90 87       	std	Z+8, r25	; 0x08
     4b8:	87 83       	std	Z+7, r24	; 0x07
     4ba:	d4 01       	movw	r26, r8
     4bc:	8d 91       	ld	r24, X+
     4be:	9c 91       	ld	r25, X
     4c0:	9c 01       	movw	r18, r24
     4c2:	40 e0       	ldi	r20, 0x00	; 0
     4c4:	50 e0       	ldi	r21, 0x00	; 0
     4c6:	29 83       	std	Y+1, r18	; 0x01
     4c8:	3a 83       	std	Y+2, r19	; 0x02
     4ca:	4b 83       	std	Y+3, r20	; 0x03
     4cc:	5c 83       	std	Y+4, r21	; 0x04
     4ce:	ca 01       	movw	r24, r20
     4d0:	b9 01       	movw	r22, r18
     4d2:	0e 94 85 22 	call	0x450a	; 0x450a <__floatunsisf>
     4d6:	3b 01       	movw	r6, r22
     4d8:	6c 01       	movw	r12, r24
     4da:	2d 81       	ldd	r18, Y+5	; 0x05
     4dc:	3e 81       	ldd	r19, Y+6	; 0x06
     4de:	4f 81       	ldd	r20, Y+7	; 0x07
     4e0:	58 85       	ldd	r21, Y+8	; 0x08
     4e2:	69 83       	std	Y+1, r22	; 0x01
     4e4:	7a 82       	std	Y+2, r7	; 0x02
     4e6:	8b 83       	std	Y+3, r24	; 0x03
     4e8:	dc 82       	std	Y+4, r13	; 0x04
     4ea:	69 81       	ldd	r22, Y+1	; 0x01
     4ec:	7a 81       	ldd	r23, Y+2	; 0x02
     4ee:	8b 81       	ldd	r24, Y+3	; 0x03
     4f0:	9c 81       	ldd	r25, Y+4	; 0x04
     4f2:	0e 94 6b 21 	call	0x42d6	; 0x42d6 <__subsf3>
     4f6:	9b 01       	movw	r18, r22
     4f8:	ac 01       	movw	r20, r24
     4fa:	a9 85       	ldd	r26, Y+9	; 0x09
     4fc:	ba 85       	ldd	r27, Y+10	; 0x0a
     4fe:	1b 96       	adiw	r26, 0x0b	; 11
     500:	6d 91       	ld	r22, X+
     502:	7d 91       	ld	r23, X+
     504:	8d 91       	ld	r24, X+
     506:	9c 91       	ld	r25, X
     508:	1e 97       	sbiw	r26, 0x0e	; 14
     50a:	0e 94 6c 21 	call	0x42d8	; 0x42d8 <__addsf3>
     50e:	69 8b       	std	Y+17, r22	; 0x11
     510:	7a 8b       	std	Y+18, r23	; 0x12
     512:	8b 8b       	std	Y+19, r24	; 0x13
     514:	9c 8b       	std	Y+20, r25	; 0x14
     516:	e9 85       	ldd	r30, Y+9	; 0x09
     518:	fa 85       	ldd	r31, Y+10	; 0x0a
     51a:	63 87       	std	Z+11, r22	; 0x0b
     51c:	74 87       	std	Z+12, r23	; 0x0c
     51e:	85 87       	std	Z+13, r24	; 0x0d
     520:	96 87       	std	Z+14, r25	; 0x0e

00000522 <.L9>:
     522:	93 01       	movw	r18, r6
     524:	a6 01       	movw	r20, r12
     526:	6d 81       	ldd	r22, Y+5	; 0x05
     528:	7e 81       	ldd	r23, Y+6	; 0x06
     52a:	8f 81       	ldd	r24, Y+7	; 0x07
     52c:	98 85       	ldd	r25, Y+8	; 0x08
     52e:	0e 94 37 23 	call	0x466e	; 0x466e <__gesf2>
     532:	18 16       	cp	r1, r24
     534:	5c f4       	brge	.+22     	; 0x54c <.L11>
     536:	a9 85       	ldd	r26, Y+9	; 0x09
     538:	ba 85       	ldd	r27, Y+10	; 0x0a
     53a:	19 96       	adiw	r26, 0x09	; 9
     53c:	8d 91       	ld	r24, X+
     53e:	9c 91       	ld	r25, X
     540:	1a 97       	sbiw	r26, 0x0a	; 10
     542:	01 96       	adiw	r24, 0x01	; 1
     544:	1a 96       	adiw	r26, 0x0a	; 10
     546:	9c 93       	st	X, r25
     548:	8e 93       	st	-X, r24
     54a:	19 97       	sbiw	r26, 0x09	; 9

0000054c <.L11>:
     54c:	bf ef       	ldi	r27, 0xFF	; 255
     54e:	ab 1a       	sub	r10, r27
     550:	bb 0a       	sbc	r11, r27
     552:	a0 16       	cp	r10, r16
     554:	b1 06       	cpc	r11, r17
     556:	50 f4       	brcc	.+20     	; 0x56c <.L13>
     558:	e9 85       	ldd	r30, Y+9	; 0x09
     55a:	fa 85       	ldd	r31, Y+10	; 0x0a
     55c:	b2 82       	std	Z+2, r11	; 0x02
     55e:	a1 82       	std	Z+1, r10	; 0x01
     560:	58 cf       	rjmp	.-336    	; 0x412 <.L6>

00000562 <.L20>:
     562:	12 96       	adiw	r26, 0x02	; 2
     564:	fc 92       	st	X, r15
     566:	ee 92       	st	-X, r14
     568:	11 97       	sbiw	r26, 0x01	; 1
     56a:	53 cf       	rjmp	.-346    	; 0x412 <.L6>

0000056c <.L13>:
     56c:	a9 85       	ldd	r26, Y+9	; 0x09
     56e:	ba 85       	ldd	r27, Y+10	; 0x0a
     570:	12 96       	adiw	r26, 0x02	; 2
     572:	1c 92       	st	X, r1
     574:	1e 92       	st	-X, r1
     576:	11 97       	sbiw	r26, 0x01	; 1
     578:	1c 92       	st	X, r1
     57a:	1b 96       	adiw	r26, 0x0b	; 11
     57c:	2d 91       	ld	r18, X+
     57e:	3d 91       	ld	r19, X+
     580:	4d 91       	ld	r20, X+
     582:	5c 91       	ld	r21, X
     584:	1e 97       	sbiw	r26, 0x0e	; 14
     586:	29 83       	std	Y+1, r18	; 0x01
     588:	3a 83       	std	Y+2, r19	; 0x02
     58a:	4b 83       	std	Y+3, r20	; 0x03
     58c:	5c 83       	std	Y+4, r21	; 0x04
     58e:	20 e0       	ldi	r18, 0x00	; 0
     590:	30 e0       	ldi	r19, 0x00	; 0
     592:	a9 01       	movw	r20, r18
     594:	69 81       	ldd	r22, Y+1	; 0x01
     596:	7a 81       	ldd	r23, Y+2	; 0x02
     598:	8b 81       	ldd	r24, Y+3	; 0x03
     59a:	9c 81       	ldd	r25, Y+4	; 0x04
     59c:	0e 94 d8 21 	call	0x43b0	; 0x43b0 <__cmpsf2>
     5a0:	87 fd       	sbrc	r24, 7
     5a2:	5b c0       	rjmp	.+182    	; 0x65a <.L22>

000005a4 <.L14>:
     5a4:	e9 85       	ldd	r30, Y+9	; 0x09
     5a6:	fa 85       	ldd	r31, Y+10	; 0x0a
     5a8:	87 81       	ldd	r24, Z+7	; 0x07
     5aa:	90 85       	ldd	r25, Z+8	; 0x08
     5ac:	21 85       	ldd	r18, Z+9	; 0x09
     5ae:	32 85       	ldd	r19, Z+10	; 0x0a
     5b0:	82 1b       	sub	r24, r18
     5b2:	93 0b       	sbc	r25, r19
     5b4:	9c 01       	movw	r18, r24
     5b6:	99 0f       	add	r25, r25
     5b8:	44 0b       	sbc	r20, r20
     5ba:	55 0b       	sbc	r21, r21
     5bc:	29 87       	std	Y+9, r18	; 0x09
     5be:	3a 87       	std	Y+10, r19	; 0x0a
     5c0:	4b 87       	std	Y+11, r20	; 0x0b
     5c2:	5c 87       	std	Y+12, r21	; 0x0c
     5c4:	ca 01       	movw	r24, r20
     5c6:	b9 01       	movw	r22, r18
     5c8:	0e 94 87 22 	call	0x450e	; 0x450e <__floatsisf>
     5cc:	29 81       	ldd	r18, Y+1	; 0x01
     5ce:	3a 81       	ldd	r19, Y+2	; 0x02
     5d0:	4b 81       	ldd	r20, Y+3	; 0x03
     5d2:	5c 81       	ldd	r21, Y+4	; 0x04
     5d4:	69 83       	std	Y+1, r22	; 0x01
     5d6:	7a 83       	std	Y+2, r23	; 0x02
     5d8:	8b 83       	std	Y+3, r24	; 0x03
     5da:	9c 83       	std	Y+4, r25	; 0x04
     5dc:	69 81       	ldd	r22, Y+1	; 0x01
     5de:	7a 81       	ldd	r23, Y+2	; 0x02
     5e0:	8b 81       	ldd	r24, Y+3	; 0x03
     5e2:	9c 81       	ldd	r25, Y+4	; 0x04
     5e4:	0e 94 3c 23 	call	0x4678	; 0x4678 <__mulsf3>
     5e8:	6b 01       	movw	r12, r22
     5ea:	8d 8b       	std	Y+21, r24	; 0x15
     5ec:	99 87       	std	Y+9, r25	; 0x09
     5ee:	00 9f       	mul	r16, r16
     5f0:	c0 01       	movw	r24, r0
     5f2:	01 9f       	mul	r16, r17
     5f4:	90 0d       	add	r25, r0
     5f6:	90 0d       	add	r25, r0
     5f8:	11 24       	eor	r1, r1
     5fa:	9c 01       	movw	r18, r24
     5fc:	99 0f       	add	r25, r25
     5fe:	44 0b       	sbc	r20, r20
     600:	55 0b       	sbc	r21, r21
     602:	29 83       	std	Y+1, r18	; 0x01
     604:	3a 83       	std	Y+2, r19	; 0x02
     606:	4b 83       	std	Y+3, r20	; 0x03
     608:	5c 83       	std	Y+4, r21	; 0x04
     60a:	ca 01       	movw	r24, r20
     60c:	b9 01       	movw	r22, r18
     60e:	0e 94 87 22 	call	0x450e	; 0x450e <__floatsisf>
     612:	9b 01       	movw	r18, r22
     614:	ac 01       	movw	r20, r24
     616:	c9 82       	std	Y+1, r12	; 0x01
     618:	da 82       	std	Y+2, r13	; 0x02
     61a:	8d 89       	ldd	r24, Y+21	; 0x15
     61c:	8b 83       	std	Y+3, r24	; 0x03
     61e:	99 85       	ldd	r25, Y+9	; 0x09
     620:	9c 83       	std	Y+4, r25	; 0x04
     622:	69 81       	ldd	r22, Y+1	; 0x01
     624:	7a 81       	ldd	r23, Y+2	; 0x02
     626:	8b 81       	ldd	r24, Y+3	; 0x03
     628:	9c 81       	ldd	r25, Y+4	; 0x04
     62a:	0e 94 dd 21 	call	0x43ba	; 0x43ba <__divsf3>
     62e:	2d 81       	ldd	r18, Y+5	; 0x05
     630:	3e 81       	ldd	r19, Y+6	; 0x06
     632:	4f 81       	ldd	r20, Y+7	; 0x07
     634:	58 85       	ldd	r21, Y+8	; 0x08
     636:	69 83       	std	Y+1, r22	; 0x01
     638:	7a 83       	std	Y+2, r23	; 0x02
     63a:	8b 83       	std	Y+3, r24	; 0x03
     63c:	9c 83       	std	Y+4, r25	; 0x04
     63e:	69 81       	ldd	r22, Y+1	; 0x01
     640:	7a 81       	ldd	r23, Y+2	; 0x02
     642:	8b 81       	ldd	r24, Y+3	; 0x03
     644:	9c 81       	ldd	r25, Y+4	; 0x04
     646:	0e 94 6c 21 	call	0x42d8	; 0x42d8 <__addsf3>
     64a:	d7 01       	movw	r26, r14
     64c:	6d 93       	st	X+, r22
     64e:	7d 93       	st	X+, r23
     650:	8d 93       	st	X+, r24
     652:	9c 93       	st	X, r25
     654:	13 97       	sbiw	r26, 0x03	; 3
     656:	81 e0       	ldi	r24, 0x01	; 1
     658:	dd ce       	rjmp	.-582    	; 0x414 <.L1>

0000065a <.L22>:
     65a:	29 81       	ldd	r18, Y+1	; 0x01
     65c:	3a 81       	ldd	r19, Y+2	; 0x02
     65e:	4b 81       	ldd	r20, Y+3	; 0x03
     660:	5c 81       	ldd	r21, Y+4	; 0x04
     662:	50 58       	subi	r21, 0x80	; 128
     664:	29 83       	std	Y+1, r18	; 0x01
     666:	3a 83       	std	Y+2, r19	; 0x02
     668:	4b 83       	std	Y+3, r20	; 0x03
     66a:	5c 83       	std	Y+4, r21	; 0x04
     66c:	a9 85       	ldd	r26, Y+9	; 0x09
     66e:	ba 85       	ldd	r27, Y+10	; 0x0a
     670:	1b 96       	adiw	r26, 0x0b	; 11
     672:	2d 93       	st	X+, r18
     674:	3d 93       	st	X+, r19
     676:	4d 93       	st	X+, r20
     678:	5c 93       	st	X, r21
     67a:	1e 97       	sbiw	r26, 0x0e	; 14
     67c:	93 cf       	rjmp	.-218    	; 0x5a4 <.L14>

0000067e <.L21>:
     67e:	a9 85       	ldd	r26, Y+9	; 0x09
     680:	ba 85       	ldd	r27, Y+10	; 0x0a
     682:	13 96       	adiw	r26, 0x03	; 3
     684:	8d 90       	ld	r8, X+
     686:	9d 90       	ld	r9, X+
     688:	ad 90       	ld	r10, X+
     68a:	bc 90       	ld	r11, X
     68c:	16 97       	sbiw	r26, 0x06	; 6
     68e:	11 96       	adiw	r26, 0x01	; 1
     690:	ed 90       	ld	r14, X+
     692:	fc 90       	ld	r15, X
     694:	c7 01       	movw	r24, r14
     696:	88 0f       	add	r24, r24
     698:	99 1f       	adc	r25, r25
     69a:	e8 0f       	add	r30, r24
     69c:	f9 1f       	adc	r31, r25
     69e:	bf ef       	ldi	r27, 0xFF	; 255
     6a0:	eb 1a       	sub	r14, r27
     6a2:	fb 0a       	sbc	r15, r27
     6a4:	57 ce       	rjmp	.-850    	; 0x354 <.L3>

000006a6 <pinGetLevel_0>:
     6a6:	86 b3       	in	r24, 0x16	; 22
     6a8:	82 95       	swap	r24
     6aa:	81 70       	andi	r24, 0x01	; 1
     6ac:	08 95       	ret

000006ae <pinGetLevel_init>:
     6ae:	c4 9a       	sbi	0x18, 4	; 24
     6b0:	bc 98       	cbi	0x17, 4	; 23
     6b2:	ea e1       	ldi	r30, 0x1A	; 26
     6b4:	f5 e0       	ldi	r31, 0x05	; 5
     6b6:	83 e5       	ldi	r24, 0x53	; 83
     6b8:	93 e0       	ldi	r25, 0x03	; 3
     6ba:	93 83       	std	Z+3, r25	; 0x03
     6bc:	82 83       	std	Z+2, r24	; 0x02
     6be:	8f e9       	ldi	r24, 0x9F	; 159
     6c0:	9f e0       	ldi	r25, 0x0F	; 15

000006c2 <.L1^B1>:
     6c2:	01 97       	sbiw	r24, 0x01	; 1
     6c4:	f1 f7       	brne	.-4      	; 0x6c2 <.L1^B1>
     6c6:	00 c0       	rjmp	.+0      	; 0x6c8 <L0^A>

000006c8 <L0^A>:
     6c8:	00 00       	nop
     6ca:	02 80       	ldd	r0, Z+2	; 0x02
     6cc:	f3 81       	ldd	r31, Z+3	; 0x03
     6ce:	e0 2d       	mov	r30, r0
     6d0:	09 95       	icall
     6d2:	98 2f       	mov	r25, r24
     6d4:	91 70       	andi	r25, 0x01	; 1
     6d6:	eb e1       	ldi	r30, 0x1B	; 27
     6d8:	f5 e0       	ldi	r31, 0x05	; 5
     6da:	80 81       	ld	r24, Z
     6dc:	90 fb       	bst	r25, 0
     6de:	81 f9       	bld	r24, 1
     6e0:	90 fb       	bst	r25, 0
     6e2:	82 f9       	bld	r24, 2
     6e4:	88 60       	ori	r24, 0x08	; 8
     6e6:	80 83       	st	Z, r24
     6e8:	08 95       	ret

000006ea <pinGetLevel_job>:
     6ea:	0f 93       	push	r16
     6ec:	1f 93       	push	r17
     6ee:	cf 93       	push	r28
     6f0:	df 93       	push	r29
     6f2:	80 91 1b 05 	lds	r24, 0x051B	; 0x80051b <pinGetLevel+0x1>
     6f6:	80 fd       	sbrc	r24, 0
     6f8:	21 c0       	rjmp	.+66     	; 0x73c <.L5>
     6fa:	e0 91 1c 05 	lds	r30, 0x051C	; 0x80051c <pinGetLevel+0x2>
     6fe:	f0 91 1d 05 	lds	r31, 0x051D	; 0x80051d <pinGetLevel+0x3>
     702:	09 95       	icall
     704:	90 91 1b 05 	lds	r25, 0x051B	; 0x80051b <pinGetLevel+0x1>
     708:	92 fb       	bst	r25, 2
     70a:	22 27       	eor	r18, r18
     70c:	20 f9       	bld	r18, 0
     70e:	c2 2f       	mov	r28, r18
     710:	20 e0       	ldi	r18, 0x00	; 0
     712:	d2 2f       	mov	r29, r18
     714:	28 2f       	mov	r18, r24
     716:	08 2e       	mov	r0, r24
     718:	00 0c       	add	r0, r0
     71a:	33 0b       	sbc	r19, r19
     71c:	c2 17       	cp	r28, r18
     71e:	d3 07       	cpc	r29, r19
     720:	41 f0       	breq	.+16     	; 0x732 <.L4>
     722:	88 0f       	add	r24, r24
     724:	88 0f       	add	r24, r24
     726:	84 70       	andi	r24, 0x04	; 4
     728:	81 60       	ori	r24, 0x01	; 1
     72a:	9a 7f       	andi	r25, 0xFA	; 250
     72c:	89 2b       	or	r24, r25
     72e:	80 93 1b 05 	sts	0x051B, r24	; 0x80051b <pinGetLevel+0x1>

00000732 <.L4>:
     732:	df 91       	pop	r29
     734:	cf 91       	pop	r28
     736:	1f 91       	pop	r17
     738:	0f 91       	pop	r16
     73a:	08 95       	ret

0000073c <.L5>:
     73c:	80 91 1a 05 	lds	r24, 0x051A	; 0x80051a <pinGetLevel>
     740:	91 e0       	ldi	r25, 0x01	; 1
     742:	98 0f       	add	r25, r24
     744:	84 30       	cpi	r24, 0x04	; 4
     746:	39 f0       	breq	.+14     	; 0x756 <.L8>
     748:	90 93 1a 05 	sts	0x051A, r25	; 0x80051a <pinGetLevel>
     74c:	df 91       	pop	r29
     74e:	cf 91       	pop	r28
     750:	1f 91       	pop	r17
     752:	0f 91       	pop	r16
     754:	08 95       	ret

00000756 <.L8>:
     756:	10 92 1a 05 	sts	0x051A, r1	; 0x80051a <pinGetLevel>
     75a:	e0 91 1c 05 	lds	r30, 0x051C	; 0x80051c <pinGetLevel+0x2>
     75e:	f0 91 1d 05 	lds	r31, 0x051D	; 0x80051d <pinGetLevel+0x3>
     762:	09 95       	icall
     764:	90 91 1b 05 	lds	r25, 0x051B	; 0x80051b <pinGetLevel+0x1>
     768:	92 fb       	bst	r25, 2
     76a:	00 27       	eor	r16, r16
     76c:	00 f9       	bld	r16, 0
     76e:	10 e0       	ldi	r17, 0x00	; 0
     770:	28 2f       	mov	r18, r24
     772:	08 2e       	mov	r0, r24
     774:	00 0c       	add	r0, r0
     776:	33 0b       	sbc	r19, r19
     778:	02 17       	cp	r16, r18
     77a:	13 07       	cpc	r17, r19
     77c:	71 f0       	breq	.+28     	; 0x79a <.L12>
     77e:	80 fb       	bst	r24, 0
     780:	92 f9       	bld	r25, 2
     782:	90 93 1b 05 	sts	0x051B, r25	; 0x80051b <pinGetLevel+0x1>

00000786 <.L11>:
     786:	80 91 1b 05 	lds	r24, 0x051B	; 0x80051b <pinGetLevel+0x1>
     78a:	8e 7f       	andi	r24, 0xFE	; 254
     78c:	80 93 1b 05 	sts	0x051B, r24	; 0x80051b <pinGetLevel+0x1>
     790:	df 91       	pop	r29
     792:	cf 91       	pop	r28
     794:	1f 91       	pop	r17
     796:	0f 91       	pop	r16
     798:	08 95       	ret

0000079a <.L12>:
     79a:	88 0f       	add	r24, r24
     79c:	82 70       	andi	r24, 0x02	; 2
     79e:	88 60       	ori	r24, 0x08	; 8
     7a0:	95 7f       	andi	r25, 0xF5	; 245
     7a2:	89 2b       	or	r24, r25
     7a4:	80 93 1b 05 	sts	0x051B, r24	; 0x80051b <pinGetLevel+0x1>
     7a8:	ee cf       	rjmp	.-36     	; 0x786 <.L11>

000007aa <pid_pwm_set_pin>:
     7aa:	fc 01       	movw	r30, r24
     7ac:	a5 a5       	ldd	r26, Z+45	; 0x2d
     7ae:	b6 a5       	ldd	r27, Z+46	; 0x2e
     7b0:	27 a5       	ldd	r18, Z+47	; 0x2f
     7b2:	81 e0       	ldi	r24, 0x01	; 1
     7b4:	90 e0       	ldi	r25, 0x00	; 0
     7b6:	01 c0       	rjmp	.+2      	; 0x7ba <.L2^B1>

000007b8 <.L1^B1>:
     7b8:	88 0f       	add	r24, r24

000007ba <.L2^B1>:
     7ba:	2a 95       	dec	r18
     7bc:	ea f7       	brpl	.-6      	; 0x7b8 <.L1^B1>
     7be:	9c 91       	ld	r25, X
     7c0:	61 30       	cpi	r22, 0x01	; 1
     7c2:	21 f0       	breq	.+8      	; 0x7cc <.L5>
     7c4:	80 95       	com	r24
     7c6:	89 23       	and	r24, r25
     7c8:	8c 93       	st	X, r24
     7ca:	08 95       	ret

000007cc <.L5>:
     7cc:	89 2b       	or	r24, r25
     7ce:	8c 93       	st	X, r24
     7d0:	08 95       	ret

000007d2 <pid_pwm_stablish_levelpin>:
     7d2:	fc 01       	movw	r30, r24
     7d4:	20 a1       	ldd	r18, Z+32	; 0x20
     7d6:	31 a1       	ldd	r19, Z+33	; 0x21
     7d8:	33 a3       	std	Z+35, r19	; 0x23
     7da:	22 a3       	std	Z+34, r18	; 0x22
     7dc:	a5 a5       	ldd	r26, Z+45	; 0x2d
     7de:	b6 a5       	ldd	r27, Z+46	; 0x2e
     7e0:	47 a5       	ldd	r20, Z+47	; 0x2f
     7e2:	81 e0       	ldi	r24, 0x01	; 1
     7e4:	90 e0       	ldi	r25, 0x00	; 0
     7e6:	01 c0       	rjmp	.+2      	; 0x7ea <.L2^B2>

000007e8 <.L1^B2>:
     7e8:	88 0f       	add	r24, r24

000007ea <.L2^B2>:
     7ea:	4a 95       	dec	r20
     7ec:	ea f7       	brpl	.-6      	; 0x7e8 <.L1^B2>
     7ee:	9c 91       	ld	r25, X
     7f0:	12 16       	cp	r1, r18
     7f2:	13 06       	cpc	r1, r19
     7f4:	1c f4       	brge	.+6      	; 0x7fc <.L7>
     7f6:	89 2b       	or	r24, r25
     7f8:	8c 93       	st	X, r24
     7fa:	08 95       	ret

000007fc <.L7>:
     7fc:	80 95       	com	r24
     7fe:	89 23       	and	r24, r25
     800:	8c 93       	st	X, r24
     802:	08 95       	ret

00000804 <pid_find_ktop_ms>:
     804:	af 92       	push	r10
     806:	bf 92       	push	r11
     808:	cf 92       	push	r12
     80a:	df 92       	push	r13
     80c:	ef 92       	push	r14
     80e:	ff 92       	push	r15
     810:	0f 93       	push	r16
     812:	1f 93       	push	r17
     814:	cf 93       	push	r28
     816:	df 93       	push	r29
     818:	00 d0       	rcall	.+0      	; 0x81a <L0^A>

0000081a <L0^A>:
     81a:	00 d0       	rcall	.+0      	; 0x81c <L0^A>

0000081c <L0^A>:
     81c:	00 d0       	rcall	.+0      	; 0x81e <L0^A>

0000081e <L0^A>:
     81e:	cd b7       	in	r28, 0x3d	; 61
     820:	de b7       	in	r29, 0x3e	; 62
     822:	8d 83       	std	Y+5, r24	; 0x05
     824:	9e 83       	std	Y+6, r25	; 0x06
     826:	cb 01       	movw	r24, r22
     828:	ad 81       	ldd	r26, Y+5	; 0x05
     82a:	be 81       	ldd	r27, Y+6	; 0x06
     82c:	12 96       	adiw	r26, 0x02	; 2
     82e:	2d 91       	ld	r18, X+
     830:	3c 91       	ld	r19, X
     832:	13 97       	sbiw	r26, 0x03	; 3
     834:	26 0f       	add	r18, r22
     836:	37 1f       	adc	r19, r23
     838:	13 96       	adiw	r26, 0x03	; 3
     83a:	3c 93       	st	X, r19
     83c:	2e 93       	st	-X, r18
     83e:	12 97       	sbiw	r26, 0x02	; 2
     840:	18 96       	adiw	r26, 0x08	; 8
     842:	0d 91       	ld	r16, X+
     844:	1c 91       	ld	r17, X
     846:	19 97       	sbiw	r26, 0x09	; 9
     848:	02 17       	cp	r16, r18
     84a:	13 07       	cpc	r17, r19
     84c:	0c f0       	brlt	.+2      	; 0x850 <L0^A+0x2>

0000084e <L0^A>:
     84e:	ba c0       	rjmp	.+372    	; 0x9c4 <.L10>
     850:	13 96       	adiw	r26, 0x03	; 3
     852:	1c 93       	st	X, r17
     854:	0e 93       	st	-X, r16
     856:	12 97       	sbiw	r26, 0x02	; 2

00000858 <.L11>:
     858:	14 96       	adiw	r26, 0x04	; 4
     85a:	2d 91       	ld	r18, X+
     85c:	3c 91       	ld	r19, X
     85e:	15 97       	sbiw	r26, 0x05	; 5
     860:	7c 01       	movw	r14, r24
     862:	e2 1a       	sub	r14, r18
     864:	f3 0a       	sbc	r15, r19
     866:	17 96       	adiw	r26, 0x07	; 7
     868:	fc 92       	st	X, r15
     86a:	ee 92       	st	-X, r14
     86c:	16 97       	sbiw	r26, 0x06	; 6
     86e:	15 96       	adiw	r26, 0x05	; 5
     870:	9c 93       	st	X, r25
     872:	8e 93       	st	-X, r24
     874:	14 97       	sbiw	r26, 0x04	; 4
     876:	9c 01       	movw	r18, r24
     878:	99 0f       	add	r25, r25
     87a:	44 0b       	sbc	r20, r20
     87c:	55 0b       	sbc	r21, r21
     87e:	29 83       	std	Y+1, r18	; 0x01
     880:	3a 83       	std	Y+2, r19	; 0x02
     882:	4b 83       	std	Y+3, r20	; 0x03
     884:	5c 83       	std	Y+4, r21	; 0x04
     886:	ca 01       	movw	r24, r20
     888:	b9 01       	movw	r22, r18
     88a:	0e 94 87 22 	call	0x450e	; 0x450e <__floatsisf>
     88e:	ad 81       	ldd	r26, Y+5	; 0x05
     890:	be 81       	ldd	r27, Y+6	; 0x06
     892:	52 96       	adiw	r26, 0x12	; 18
     894:	2d 91       	ld	r18, X+
     896:	3d 91       	ld	r19, X+
     898:	4d 91       	ld	r20, X+
     89a:	5c 91       	ld	r21, X
     89c:	55 97       	sbiw	r26, 0x15	; 21
     89e:	69 83       	std	Y+1, r22	; 0x01
     8a0:	7a 83       	std	Y+2, r23	; 0x02
     8a2:	8b 83       	std	Y+3, r24	; 0x03
     8a4:	9c 83       	std	Y+4, r25	; 0x04
     8a6:	69 81       	ldd	r22, Y+1	; 0x01
     8a8:	7a 81       	ldd	r23, Y+2	; 0x02
     8aa:	8b 81       	ldd	r24, Y+3	; 0x03
     8ac:	9c 81       	ldd	r25, Y+4	; 0x04
     8ae:	0e 94 3c 23 	call	0x4678	; 0x4678 <__mulsf3>
     8b2:	5b 01       	movw	r10, r22
     8b4:	6c 01       	movw	r12, r24
     8b6:	98 01       	movw	r18, r16
     8b8:	11 0f       	add	r17, r17
     8ba:	44 0b       	sbc	r20, r20
     8bc:	55 0b       	sbc	r21, r21
     8be:	29 83       	std	Y+1, r18	; 0x01
     8c0:	3a 83       	std	Y+2, r19	; 0x02
     8c2:	4b 83       	std	Y+3, r20	; 0x03
     8c4:	5c 83       	std	Y+4, r21	; 0x04
     8c6:	ca 01       	movw	r24, r20
     8c8:	b9 01       	movw	r22, r18
     8ca:	0e 94 87 22 	call	0x450e	; 0x450e <__floatsisf>
     8ce:	ad 81       	ldd	r26, Y+5	; 0x05
     8d0:	be 81       	ldd	r27, Y+6	; 0x06
     8d2:	56 96       	adiw	r26, 0x16	; 22
     8d4:	2d 91       	ld	r18, X+
     8d6:	3d 91       	ld	r19, X+
     8d8:	4d 91       	ld	r20, X+
     8da:	5c 91       	ld	r21, X
     8dc:	59 97       	sbiw	r26, 0x19	; 25
     8de:	69 83       	std	Y+1, r22	; 0x01
     8e0:	7a 83       	std	Y+2, r23	; 0x02
     8e2:	8b 83       	std	Y+3, r24	; 0x03
     8e4:	9c 83       	std	Y+4, r25	; 0x04
     8e6:	69 81       	ldd	r22, Y+1	; 0x01
     8e8:	7a 81       	ldd	r23, Y+2	; 0x02
     8ea:	8b 81       	ldd	r24, Y+3	; 0x03
     8ec:	9c 81       	ldd	r25, Y+4	; 0x04
     8ee:	0e 94 3c 23 	call	0x4678	; 0x4678 <__mulsf3>
     8f2:	9b 01       	movw	r18, r22
     8f4:	ac 01       	movw	r20, r24
     8f6:	a9 82       	std	Y+1, r10	; 0x01
     8f8:	ba 82       	std	Y+2, r11	; 0x02
     8fa:	cb 82       	std	Y+3, r12	; 0x03
     8fc:	dc 82       	std	Y+4, r13	; 0x04
     8fe:	69 81       	ldd	r22, Y+1	; 0x01
     900:	7a 81       	ldd	r23, Y+2	; 0x02
     902:	8b 81       	ldd	r24, Y+3	; 0x03
     904:	9c 81       	ldd	r25, Y+4	; 0x04
     906:	0e 94 6c 21 	call	0x42d8	; 0x42d8 <__addsf3>
     90a:	6b 01       	movw	r12, r22
     90c:	8c 01       	movw	r16, r24
     90e:	97 01       	movw	r18, r14
     910:	ff 0c       	add	r15, r15
     912:	44 0b       	sbc	r20, r20
     914:	55 0b       	sbc	r21, r21
     916:	29 83       	std	Y+1, r18	; 0x01
     918:	3a 83       	std	Y+2, r19	; 0x02
     91a:	4b 83       	std	Y+3, r20	; 0x03
     91c:	5c 83       	std	Y+4, r21	; 0x04
     91e:	ca 01       	movw	r24, r20
     920:	b9 01       	movw	r22, r18
     922:	0e 94 87 22 	call	0x450e	; 0x450e <__floatsisf>
     926:	ad 81       	ldd	r26, Y+5	; 0x05
     928:	be 81       	ldd	r27, Y+6	; 0x06
     92a:	5a 96       	adiw	r26, 0x1a	; 26
     92c:	2d 91       	ld	r18, X+
     92e:	3d 91       	ld	r19, X+
     930:	4d 91       	ld	r20, X+
     932:	5c 91       	ld	r21, X
     934:	5d 97       	sbiw	r26, 0x1d	; 29
     936:	69 83       	std	Y+1, r22	; 0x01
     938:	7a 83       	std	Y+2, r23	; 0x02
     93a:	8b 83       	std	Y+3, r24	; 0x03
     93c:	9c 83       	std	Y+4, r25	; 0x04
     93e:	69 81       	ldd	r22, Y+1	; 0x01
     940:	7a 81       	ldd	r23, Y+2	; 0x02
     942:	8b 81       	ldd	r24, Y+3	; 0x03
     944:	9c 81       	ldd	r25, Y+4	; 0x04
     946:	0e 94 3c 23 	call	0x4678	; 0x4678 <__mulsf3>
     94a:	9b 01       	movw	r18, r22
     94c:	ac 01       	movw	r20, r24
     94e:	c9 82       	std	Y+1, r12	; 0x01
     950:	da 82       	std	Y+2, r13	; 0x02
     952:	0b 83       	std	Y+3, r16	; 0x03
     954:	1c 83       	std	Y+4, r17	; 0x04
     956:	69 81       	ldd	r22, Y+1	; 0x01
     958:	7a 81       	ldd	r23, Y+2	; 0x02
     95a:	8b 81       	ldd	r24, Y+3	; 0x03
     95c:	9c 81       	ldd	r25, Y+4	; 0x04
     95e:	0e 94 6c 21 	call	0x42d8	; 0x42d8 <__addsf3>
     962:	69 83       	std	Y+1, r22	; 0x01
     964:	7a 83       	std	Y+2, r23	; 0x02
     966:	8b 83       	std	Y+3, r24	; 0x03
     968:	9c 83       	std	Y+4, r25	; 0x04
     96a:	69 81       	ldd	r22, Y+1	; 0x01
     96c:	7a 81       	ldd	r23, Y+2	; 0x02
     96e:	8b 81       	ldd	r24, Y+3	; 0x03
     970:	9c 81       	ldd	r25, Y+4	; 0x04
     972:	0e 94 4f 22 	call	0x449e	; 0x449e <__fixsfsi>
     976:	46 2f       	mov	r20, r22
     978:	57 2f       	mov	r21, r23
     97a:	ed 81       	ldd	r30, Y+5	; 0x05
     97c:	fe 81       	ldd	r31, Y+6	; 0x06
     97e:	20 89       	ldd	r18, Z+16	; 0x10
     980:	31 89       	ldd	r19, Z+17	; 0x11
     982:	24 9f       	mul	r18, r20
     984:	c0 01       	movw	r24, r0
     986:	25 9f       	mul	r18, r21
     988:	90 0d       	add	r25, r0
     98a:	34 9f       	mul	r19, r20
     98c:	90 0d       	add	r25, r0
     98e:	11 24       	eor	r1, r1
     990:	91 a3       	std	Z+33, r25	; 0x21
     992:	80 a3       	std	Z+32, r24	; 0x20
     994:	24 85       	ldd	r18, Z+12	; 0x0c
     996:	35 85       	ldd	r19, Z+13	; 0x0d
     998:	28 17       	cp	r18, r24
     99a:	39 07       	cpc	r19, r25
     99c:	e4 f4       	brge	.+56     	; 0x9d6 <.L12>
     99e:	31 a3       	std	Z+33, r19	; 0x21
     9a0:	20 a3       	std	Z+32, r18	; 0x20

000009a2 <.L9>:
     9a2:	0f 90       	pop	r0
     9a4:	0f 90       	pop	r0
     9a6:	0f 90       	pop	r0
     9a8:	0f 90       	pop	r0
     9aa:	0f 90       	pop	r0
     9ac:	0f 90       	pop	r0
     9ae:	df 91       	pop	r29
     9b0:	cf 91       	pop	r28
     9b2:	1f 91       	pop	r17
     9b4:	0f 91       	pop	r16
     9b6:	ff 90       	pop	r15
     9b8:	ef 90       	pop	r14
     9ba:	df 90       	pop	r13
     9bc:	cf 90       	pop	r12
     9be:	bf 90       	pop	r11
     9c0:	af 90       	pop	r10
     9c2:	08 95       	ret

000009c4 <.L10>:
     9c4:	fd 01       	movw	r30, r26
     9c6:	02 85       	ldd	r16, Z+10	; 0x0a
     9c8:	13 85       	ldd	r17, Z+11	; 0x0b
     9ca:	20 17       	cp	r18, r16
     9cc:	31 07       	cpc	r19, r17
     9ce:	5c f4       	brge	.+22     	; 0x9e6 <.L14>
     9d0:	13 83       	std	Z+3, r17	; 0x03
     9d2:	02 83       	std	Z+2, r16	; 0x02
     9d4:	41 cf       	rjmp	.-382    	; 0x858 <.L11>

000009d6 <.L12>:
     9d6:	26 85       	ldd	r18, Z+14	; 0x0e
     9d8:	37 85       	ldd	r19, Z+15	; 0x0f
     9da:	82 17       	cp	r24, r18
     9dc:	93 07       	cpc	r25, r19
     9de:	0c f7       	brge	.-62     	; 0x9a2 <.L9>
     9e0:	31 a3       	std	Z+33, r19	; 0x21
     9e2:	20 a3       	std	Z+32, r18	; 0x20
     9e4:	de cf       	rjmp	.-68     	; 0x9a2 <.L9>

000009e6 <.L14>:
     9e6:	89 01       	movw	r16, r18
     9e8:	37 cf       	rjmp	.-402    	; 0x858 <.L11>

000009ea <pid_get_output>:
     9ea:	af 92       	push	r10
     9ec:	bf 92       	push	r11
     9ee:	cf 92       	push	r12
     9f0:	df 92       	push	r13
     9f2:	ef 92       	push	r14
     9f4:	ff 92       	push	r15
     9f6:	0f 93       	push	r16
     9f8:	1f 93       	push	r17
     9fa:	cf 93       	push	r28
     9fc:	df 93       	push	r29
     9fe:	00 d0       	rcall	.+0      	; 0xa00 <L0^A>

00000a00 <L0^A>:
     a00:	00 d0       	rcall	.+0      	; 0xa02 <L0^A>

00000a02 <L0^A>:
     a02:	00 d0       	rcall	.+0      	; 0xa04 <L0^A>

00000a04 <L0^A>:
     a04:	cd b7       	in	r28, 0x3d	; 61
     a06:	de b7       	in	r29, 0x3e	; 62
     a08:	8d 83       	std	Y+5, r24	; 0x05
     a0a:	9e 83       	std	Y+6, r25	; 0x06
     a0c:	cb 01       	movw	r24, r22
     a0e:	ad 81       	ldd	r26, Y+5	; 0x05
     a10:	be 81       	ldd	r27, Y+6	; 0x06
     a12:	12 96       	adiw	r26, 0x02	; 2
     a14:	2d 91       	ld	r18, X+
     a16:	3c 91       	ld	r19, X
     a18:	13 97       	sbiw	r26, 0x03	; 3
     a1a:	26 0f       	add	r18, r22
     a1c:	37 1f       	adc	r19, r23
     a1e:	13 96       	adiw	r26, 0x03	; 3
     a20:	3c 93       	st	X, r19
     a22:	2e 93       	st	-X, r18
     a24:	12 97       	sbiw	r26, 0x02	; 2
     a26:	18 96       	adiw	r26, 0x08	; 8
     a28:	0d 91       	ld	r16, X+
     a2a:	1c 91       	ld	r17, X
     a2c:	19 97       	sbiw	r26, 0x09	; 9
     a2e:	02 17       	cp	r16, r18
     a30:	13 07       	cpc	r17, r19
     a32:	0c f0       	brlt	.+2      	; 0xa36 <L0^A+0x2>

00000a34 <L0^A>:
     a34:	a5 c0       	rjmp	.+330    	; 0xb80 <.L16>
     a36:	13 96       	adiw	r26, 0x03	; 3
     a38:	1c 93       	st	X, r17
     a3a:	0e 93       	st	-X, r16
     a3c:	12 97       	sbiw	r26, 0x02	; 2

00000a3e <.L17>:
     a3e:	14 96       	adiw	r26, 0x04	; 4
     a40:	2d 91       	ld	r18, X+
     a42:	3c 91       	ld	r19, X
     a44:	15 97       	sbiw	r26, 0x05	; 5
     a46:	7c 01       	movw	r14, r24
     a48:	e2 1a       	sub	r14, r18
     a4a:	f3 0a       	sbc	r15, r19
     a4c:	17 96       	adiw	r26, 0x07	; 7
     a4e:	fc 92       	st	X, r15
     a50:	ee 92       	st	-X, r14
     a52:	16 97       	sbiw	r26, 0x06	; 6
     a54:	15 96       	adiw	r26, 0x05	; 5
     a56:	9c 93       	st	X, r25
     a58:	8e 93       	st	-X, r24
     a5a:	14 97       	sbiw	r26, 0x04	; 4
     a5c:	9c 01       	movw	r18, r24
     a5e:	99 0f       	add	r25, r25
     a60:	44 0b       	sbc	r20, r20
     a62:	55 0b       	sbc	r21, r21
     a64:	29 83       	std	Y+1, r18	; 0x01
     a66:	3a 83       	std	Y+2, r19	; 0x02
     a68:	4b 83       	std	Y+3, r20	; 0x03
     a6a:	5c 83       	std	Y+4, r21	; 0x04
     a6c:	ca 01       	movw	r24, r20
     a6e:	b9 01       	movw	r22, r18
     a70:	0e 94 87 22 	call	0x450e	; 0x450e <__floatsisf>
     a74:	ad 81       	ldd	r26, Y+5	; 0x05
     a76:	be 81       	ldd	r27, Y+6	; 0x06
     a78:	52 96       	adiw	r26, 0x12	; 18
     a7a:	2d 91       	ld	r18, X+
     a7c:	3d 91       	ld	r19, X+
     a7e:	4d 91       	ld	r20, X+
     a80:	5c 91       	ld	r21, X
     a82:	55 97       	sbiw	r26, 0x15	; 21
     a84:	69 83       	std	Y+1, r22	; 0x01
     a86:	7a 83       	std	Y+2, r23	; 0x02
     a88:	8b 83       	std	Y+3, r24	; 0x03
     a8a:	9c 83       	std	Y+4, r25	; 0x04
     a8c:	69 81       	ldd	r22, Y+1	; 0x01
     a8e:	7a 81       	ldd	r23, Y+2	; 0x02
     a90:	8b 81       	ldd	r24, Y+3	; 0x03
     a92:	9c 81       	ldd	r25, Y+4	; 0x04
     a94:	0e 94 3c 23 	call	0x4678	; 0x4678 <__mulsf3>
     a98:	5b 01       	movw	r10, r22
     a9a:	6c 01       	movw	r12, r24
     a9c:	98 01       	movw	r18, r16
     a9e:	11 0f       	add	r17, r17
     aa0:	44 0b       	sbc	r20, r20
     aa2:	55 0b       	sbc	r21, r21
     aa4:	29 83       	std	Y+1, r18	; 0x01
     aa6:	3a 83       	std	Y+2, r19	; 0x02
     aa8:	4b 83       	std	Y+3, r20	; 0x03
     aaa:	5c 83       	std	Y+4, r21	; 0x04
     aac:	ca 01       	movw	r24, r20
     aae:	b9 01       	movw	r22, r18
     ab0:	0e 94 87 22 	call	0x450e	; 0x450e <__floatsisf>
     ab4:	ad 81       	ldd	r26, Y+5	; 0x05
     ab6:	be 81       	ldd	r27, Y+6	; 0x06
     ab8:	56 96       	adiw	r26, 0x16	; 22
     aba:	2d 91       	ld	r18, X+
     abc:	3d 91       	ld	r19, X+
     abe:	4d 91       	ld	r20, X+
     ac0:	5c 91       	ld	r21, X
     ac2:	59 97       	sbiw	r26, 0x19	; 25
     ac4:	69 83       	std	Y+1, r22	; 0x01
     ac6:	7a 83       	std	Y+2, r23	; 0x02
     ac8:	8b 83       	std	Y+3, r24	; 0x03
     aca:	9c 83       	std	Y+4, r25	; 0x04
     acc:	69 81       	ldd	r22, Y+1	; 0x01
     ace:	7a 81       	ldd	r23, Y+2	; 0x02
     ad0:	8b 81       	ldd	r24, Y+3	; 0x03
     ad2:	9c 81       	ldd	r25, Y+4	; 0x04
     ad4:	0e 94 3c 23 	call	0x4678	; 0x4678 <__mulsf3>
     ad8:	9b 01       	movw	r18, r22
     ada:	ac 01       	movw	r20, r24
     adc:	a9 82       	std	Y+1, r10	; 0x01
     ade:	ba 82       	std	Y+2, r11	; 0x02
     ae0:	cb 82       	std	Y+3, r12	; 0x03
     ae2:	dc 82       	std	Y+4, r13	; 0x04
     ae4:	69 81       	ldd	r22, Y+1	; 0x01
     ae6:	7a 81       	ldd	r23, Y+2	; 0x02
     ae8:	8b 81       	ldd	r24, Y+3	; 0x03
     aea:	9c 81       	ldd	r25, Y+4	; 0x04
     aec:	0e 94 6c 21 	call	0x42d8	; 0x42d8 <__addsf3>
     af0:	6b 01       	movw	r12, r22
     af2:	8c 01       	movw	r16, r24
     af4:	97 01       	movw	r18, r14
     af6:	ff 0c       	add	r15, r15
     af8:	44 0b       	sbc	r20, r20
     afa:	55 0b       	sbc	r21, r21
     afc:	29 83       	std	Y+1, r18	; 0x01
     afe:	3a 83       	std	Y+2, r19	; 0x02
     b00:	4b 83       	std	Y+3, r20	; 0x03
     b02:	5c 83       	std	Y+4, r21	; 0x04
     b04:	ca 01       	movw	r24, r20
     b06:	b9 01       	movw	r22, r18
     b08:	0e 94 87 22 	call	0x450e	; 0x450e <__floatsisf>
     b0c:	ad 81       	ldd	r26, Y+5	; 0x05
     b0e:	be 81       	ldd	r27, Y+6	; 0x06
     b10:	5a 96       	adiw	r26, 0x1a	; 26
     b12:	2d 91       	ld	r18, X+
     b14:	3d 91       	ld	r19, X+
     b16:	4d 91       	ld	r20, X+
     b18:	5c 91       	ld	r21, X
     b1a:	5d 97       	sbiw	r26, 0x1d	; 29
     b1c:	69 83       	std	Y+1, r22	; 0x01
     b1e:	7a 83       	std	Y+2, r23	; 0x02
     b20:	8b 83       	std	Y+3, r24	; 0x03
     b22:	9c 83       	std	Y+4, r25	; 0x04
     b24:	69 81       	ldd	r22, Y+1	; 0x01
     b26:	7a 81       	ldd	r23, Y+2	; 0x02
     b28:	8b 81       	ldd	r24, Y+3	; 0x03
     b2a:	9c 81       	ldd	r25, Y+4	; 0x04
     b2c:	0e 94 3c 23 	call	0x4678	; 0x4678 <__mulsf3>
     b30:	9b 01       	movw	r18, r22
     b32:	ac 01       	movw	r20, r24
     b34:	c9 82       	std	Y+1, r12	; 0x01
     b36:	da 82       	std	Y+2, r13	; 0x02
     b38:	0b 83       	std	Y+3, r16	; 0x03
     b3a:	1c 83       	std	Y+4, r17	; 0x04
     b3c:	69 81       	ldd	r22, Y+1	; 0x01
     b3e:	7a 81       	ldd	r23, Y+2	; 0x02
     b40:	8b 81       	ldd	r24, Y+3	; 0x03
     b42:	9c 81       	ldd	r25, Y+4	; 0x04
     b44:	0e 94 6c 21 	call	0x42d8	; 0x42d8 <__addsf3>
     b48:	69 83       	std	Y+1, r22	; 0x01
     b4a:	7a 83       	std	Y+2, r23	; 0x02
     b4c:	8b 83       	std	Y+3, r24	; 0x03
     b4e:	9c 83       	std	Y+4, r25	; 0x04
     b50:	69 81       	ldd	r22, Y+1	; 0x01
     b52:	7a 81       	ldd	r23, Y+2	; 0x02
     b54:	8b 81       	ldd	r24, Y+3	; 0x03
     b56:	9c 81       	ldd	r25, Y+4	; 0x04
     b58:	0e 94 4f 22 	call	0x449e	; 0x449e <__fixsfsi>
     b5c:	cb 01       	movw	r24, r22
     b5e:	0f 90       	pop	r0
     b60:	0f 90       	pop	r0
     b62:	0f 90       	pop	r0
     b64:	0f 90       	pop	r0
     b66:	0f 90       	pop	r0
     b68:	0f 90       	pop	r0
     b6a:	df 91       	pop	r29
     b6c:	cf 91       	pop	r28
     b6e:	1f 91       	pop	r17
     b70:	0f 91       	pop	r16
     b72:	ff 90       	pop	r15
     b74:	ef 90       	pop	r14
     b76:	df 90       	pop	r13
     b78:	cf 90       	pop	r12
     b7a:	bf 90       	pop	r11
     b7c:	af 90       	pop	r10
     b7e:	08 95       	ret

00000b80 <.L16>:
     b80:	fd 01       	movw	r30, r26
     b82:	02 85       	ldd	r16, Z+10	; 0x0a
     b84:	13 85       	ldd	r17, Z+11	; 0x0b
     b86:	20 17       	cp	r18, r16
     b88:	31 07       	cpc	r19, r17
     b8a:	1c f4       	brge	.+6      	; 0xb92 <.L18>
     b8c:	13 83       	std	Z+3, r17	; 0x03
     b8e:	02 83       	std	Z+2, r16	; 0x02
     b90:	56 cf       	rjmp	.-340    	; 0xa3e <.L17>

00000b92 <.L18>:
     b92:	89 01       	movw	r16, r18
     b94:	54 cf       	rjmp	.-344    	; 0xa3e <.L17>

00000b96 <pid_pwm_control>:
     b96:	fc 01       	movw	r30, r24
     b98:	26 8d       	ldd	r18, Z+30	; 0x1e
     b9a:	37 8d       	ldd	r19, Z+31	; 0x1f
     b9c:	2f 5f       	subi	r18, 0xFF	; 255
     b9e:	3f 4f       	sbci	r19, 0xFF	; 255
     ba0:	37 8f       	std	Z+31, r19	; 0x1f
     ba2:	26 8f       	std	Z+30, r18	; 0x1e
     ba4:	84 a1       	ldd	r24, Z+36	; 0x24
     ba6:	44 85       	ldd	r20, Z+12	; 0x0c
     ba8:	55 85       	ldd	r21, Z+13	; 0x0d
     baa:	87 fd       	sbrc	r24, 7
     bac:	18 c0       	rjmp	.+48     	; 0xbde <.L30>
     bae:	62 a1       	ldd	r22, Z+34	; 0x22
     bb0:	73 a1       	ldd	r23, Z+35	; 0x23
     bb2:	16 16       	cp	r1, r22
     bb4:	17 06       	cpc	r1, r23
     bb6:	9c f4       	brge	.+38     	; 0xbde <.L30>
     bb8:	81 11       	cpse	r24, r1
     bba:	0c c0       	rjmp	.+24     	; 0xbd4 <.L23>
     bbc:	81 a5       	ldd	r24, Z+41	; 0x29
     bbe:	92 a5       	ldd	r25, Z+42	; 0x2a
     bc0:	28 17       	cp	r18, r24
     bc2:	39 07       	cpc	r19, r25
     bc4:	70 f0       	brcs	.+28     	; 0xbe2 <.L21>
     bc6:	17 8e       	std	Z+31, r1	; 0x1f
     bc8:	16 8e       	std	Z+30, r1	; 0x1e
     bca:	21 e0       	ldi	r18, 0x01	; 1
     bcc:	24 a3       	std	Z+36, r18	; 0x24
     bce:	20 e0       	ldi	r18, 0x00	; 0
     bd0:	30 e0       	ldi	r19, 0x00	; 0
     bd2:	07 c0       	rjmp	.+14     	; 0xbe2 <.L21>

00000bd4 <.L23>:
     bd4:	81 30       	cpi	r24, 0x01	; 1
     bd6:	19 f4       	brne	.+6      	; 0xbde <.L30>
     bd8:	26 17       	cp	r18, r22
     bda:	37 07       	cpc	r19, r23
     bdc:	38 f5       	brcc	.+78     	; 0xc2c <.L25>

00000bde <.L30>:
     bde:	81 a5       	ldd	r24, Z+41	; 0x29
     be0:	92 a5       	ldd	r25, Z+42	; 0x2a

00000be2 <.L21>:
     be2:	84 0f       	add	r24, r20
     be4:	95 1f       	adc	r25, r21
     be6:	43 a5       	ldd	r20, Z+43	; 0x2b
     be8:	54 a5       	ldd	r21, Z+44	; 0x2c
     bea:	84 0f       	add	r24, r20
     bec:	95 1f       	adc	r25, r21
     bee:	28 17       	cp	r18, r24
     bf0:	39 07       	cpc	r19, r25
     bf2:	08 f4       	brcc	.+2      	; 0xbf6 <.L31>
     bf4:	08 95       	ret

00000bf6 <.L31>:
     bf6:	17 8e       	std	Z+31, r1	; 0x1f
     bf8:	16 8e       	std	Z+30, r1	; 0x1e
     bfa:	14 a2       	std	Z+36, r1	; 0x24
     bfc:	20 a1       	ldd	r18, Z+32	; 0x20
     bfe:	31 a1       	ldd	r19, Z+33	; 0x21
     c00:	33 a3       	std	Z+35, r19	; 0x23
     c02:	22 a3       	std	Z+34, r18	; 0x22
     c04:	a5 a5       	ldd	r26, Z+45	; 0x2d
     c06:	b6 a5       	ldd	r27, Z+46	; 0x2e
     c08:	47 a5       	ldd	r20, Z+47	; 0x2f
     c0a:	81 e0       	ldi	r24, 0x01	; 1
     c0c:	90 e0       	ldi	r25, 0x00	; 0
     c0e:	01 c0       	rjmp	.+2      	; 0xc12 <.L2^B3>

00000c10 <.L1^B3>:
     c10:	88 0f       	add	r24, r24

00000c12 <.L2^B3>:
     c12:	4a 95       	dec	r20
     c14:	ea f7       	brpl	.-6      	; 0xc10 <.L1^B3>
     c16:	9c 91       	ld	r25, X
     c18:	12 16       	cp	r1, r18
     c1a:	13 06       	cpc	r1, r19
     c1c:	1c f4       	brge	.+6      	; 0xc24 <.L28>
     c1e:	89 2b       	or	r24, r25
     c20:	8c 93       	st	X, r24
     c22:	08 95       	ret

00000c24 <.L28>:
     c24:	80 95       	com	r24
     c26:	89 23       	and	r24, r25
     c28:	8c 93       	st	X, r24
     c2a:	08 95       	ret

00000c2c <.L25>:
     c2c:	64 17       	cp	r22, r20
     c2e:	75 07       	cpc	r23, r21
     c30:	b4 f6       	brge	.-84     	; 0xbde <.L30>
     c32:	a5 a5       	ldd	r26, Z+45	; 0x2d
     c34:	b6 a5       	ldd	r27, Z+46	; 0x2e
     c36:	2c 91       	ld	r18, X
     c38:	37 a5       	ldd	r19, Z+47	; 0x2f
     c3a:	81 e0       	ldi	r24, 0x01	; 1
     c3c:	90 e0       	ldi	r25, 0x00	; 0
     c3e:	01 c0       	rjmp	.+2      	; 0xc42 <.L2^B4>

00000c40 <.L1^B4>:
     c40:	88 0f       	add	r24, r24

00000c42 <.L2^B4>:
     c42:	3a 95       	dec	r19
     c44:	ea f7       	brpl	.-6      	; 0xc40 <.L1^B4>
     c46:	80 95       	com	r24
     c48:	82 23       	and	r24, r18
     c4a:	8c 93       	st	X, r24
     c4c:	26 8d       	ldd	r18, Z+30	; 0x1e
     c4e:	37 8d       	ldd	r19, Z+31	; 0x1f
     c50:	81 a5       	ldd	r24, Z+41	; 0x29
     c52:	92 a5       	ldd	r25, Z+42	; 0x2a
     c54:	44 85       	ldd	r20, Z+12	; 0x0c
     c56:	55 85       	ldd	r21, Z+13	; 0x0d
     c58:	c4 cf       	rjmp	.-120    	; 0xbe2 <.L21>

00000c5a <pid_job>:
     c5a:	af 92       	push	r10
     c5c:	bf 92       	push	r11
     c5e:	cf 92       	push	r12
     c60:	df 92       	push	r13
     c62:	ef 92       	push	r14
     c64:	ff 92       	push	r15
     c66:	0f 93       	push	r16
     c68:	1f 93       	push	r17
     c6a:	cf 93       	push	r28
     c6c:	df 93       	push	r29
     c6e:	00 d0       	rcall	.+0      	; 0xc70 <L0^A>

00000c70 <L0^A>:
     c70:	00 d0       	rcall	.+0      	; 0xc72 <L0^A>

00000c72 <L0^A>:
     c72:	00 d0       	rcall	.+0      	; 0xc74 <L0^A>

00000c74 <L0^A>:
     c74:	cd b7       	in	r28, 0x3d	; 61
     c76:	de b7       	in	r29, 0x3e	; 62
     c78:	8d 83       	std	Y+5, r24	; 0x05
     c7a:	9e 83       	std	Y+6, r25	; 0x06
     c7c:	cb 01       	movw	r24, r22
     c7e:	ad 81       	ldd	r26, Y+5	; 0x05
     c80:	be 81       	ldd	r27, Y+6	; 0x06
     c82:	12 96       	adiw	r26, 0x02	; 2
     c84:	2d 91       	ld	r18, X+
     c86:	3c 91       	ld	r19, X
     c88:	13 97       	sbiw	r26, 0x03	; 3
     c8a:	26 0f       	add	r18, r22
     c8c:	37 1f       	adc	r19, r23
     c8e:	13 96       	adiw	r26, 0x03	; 3
     c90:	3c 93       	st	X, r19
     c92:	2e 93       	st	-X, r18
     c94:	12 97       	sbiw	r26, 0x02	; 2
     c96:	18 96       	adiw	r26, 0x08	; 8
     c98:	0d 91       	ld	r16, X+
     c9a:	1c 91       	ld	r17, X
     c9c:	19 97       	sbiw	r26, 0x09	; 9
     c9e:	02 17       	cp	r16, r18
     ca0:	13 07       	cpc	r17, r19
     ca2:	0c f0       	brlt	.+2      	; 0xca6 <L0^A+0x2>

00000ca4 <L0^A>:
     ca4:	d2 c0       	rjmp	.+420    	; 0xe4a <.L33>
     ca6:	13 96       	adiw	r26, 0x03	; 3
     ca8:	1c 93       	st	X, r17
     caa:	0e 93       	st	-X, r16
     cac:	12 97       	sbiw	r26, 0x02	; 2

00000cae <.L34>:
     cae:	14 96       	adiw	r26, 0x04	; 4
     cb0:	2d 91       	ld	r18, X+
     cb2:	3c 91       	ld	r19, X
     cb4:	15 97       	sbiw	r26, 0x05	; 5
     cb6:	7c 01       	movw	r14, r24
     cb8:	e2 1a       	sub	r14, r18
     cba:	f3 0a       	sbc	r15, r19
     cbc:	17 96       	adiw	r26, 0x07	; 7
     cbe:	fc 92       	st	X, r15
     cc0:	ee 92       	st	-X, r14
     cc2:	16 97       	sbiw	r26, 0x06	; 6
     cc4:	15 96       	adiw	r26, 0x05	; 5
     cc6:	9c 93       	st	X, r25
     cc8:	8e 93       	st	-X, r24
     cca:	14 97       	sbiw	r26, 0x04	; 4
     ccc:	9c 01       	movw	r18, r24
     cce:	99 0f       	add	r25, r25
     cd0:	44 0b       	sbc	r20, r20
     cd2:	55 0b       	sbc	r21, r21
     cd4:	29 83       	std	Y+1, r18	; 0x01
     cd6:	3a 83       	std	Y+2, r19	; 0x02
     cd8:	4b 83       	std	Y+3, r20	; 0x03
     cda:	5c 83       	std	Y+4, r21	; 0x04
     cdc:	ca 01       	movw	r24, r20
     cde:	b9 01       	movw	r22, r18
     ce0:	0e 94 87 22 	call	0x450e	; 0x450e <__floatsisf>
     ce4:	ad 81       	ldd	r26, Y+5	; 0x05
     ce6:	be 81       	ldd	r27, Y+6	; 0x06
     ce8:	52 96       	adiw	r26, 0x12	; 18
     cea:	2d 91       	ld	r18, X+
     cec:	3d 91       	ld	r19, X+
     cee:	4d 91       	ld	r20, X+
     cf0:	5c 91       	ld	r21, X
     cf2:	55 97       	sbiw	r26, 0x15	; 21
     cf4:	69 83       	std	Y+1, r22	; 0x01
     cf6:	7a 83       	std	Y+2, r23	; 0x02
     cf8:	8b 83       	std	Y+3, r24	; 0x03
     cfa:	9c 83       	std	Y+4, r25	; 0x04
     cfc:	69 81       	ldd	r22, Y+1	; 0x01
     cfe:	7a 81       	ldd	r23, Y+2	; 0x02
     d00:	8b 81       	ldd	r24, Y+3	; 0x03
     d02:	9c 81       	ldd	r25, Y+4	; 0x04
     d04:	0e 94 3c 23 	call	0x4678	; 0x4678 <__mulsf3>
     d08:	5b 01       	movw	r10, r22
     d0a:	6c 01       	movw	r12, r24
     d0c:	98 01       	movw	r18, r16
     d0e:	11 0f       	add	r17, r17
     d10:	44 0b       	sbc	r20, r20
     d12:	55 0b       	sbc	r21, r21
     d14:	29 83       	std	Y+1, r18	; 0x01
     d16:	3a 83       	std	Y+2, r19	; 0x02
     d18:	4b 83       	std	Y+3, r20	; 0x03
     d1a:	5c 83       	std	Y+4, r21	; 0x04
     d1c:	ca 01       	movw	r24, r20
     d1e:	b9 01       	movw	r22, r18
     d20:	0e 94 87 22 	call	0x450e	; 0x450e <__floatsisf>
     d24:	ad 81       	ldd	r26, Y+5	; 0x05
     d26:	be 81       	ldd	r27, Y+6	; 0x06
     d28:	56 96       	adiw	r26, 0x16	; 22
     d2a:	2d 91       	ld	r18, X+
     d2c:	3d 91       	ld	r19, X+
     d2e:	4d 91       	ld	r20, X+
     d30:	5c 91       	ld	r21, X
     d32:	59 97       	sbiw	r26, 0x19	; 25
     d34:	69 83       	std	Y+1, r22	; 0x01
     d36:	7a 83       	std	Y+2, r23	; 0x02
     d38:	8b 83       	std	Y+3, r24	; 0x03
     d3a:	9c 83       	std	Y+4, r25	; 0x04
     d3c:	69 81       	ldd	r22, Y+1	; 0x01
     d3e:	7a 81       	ldd	r23, Y+2	; 0x02
     d40:	8b 81       	ldd	r24, Y+3	; 0x03
     d42:	9c 81       	ldd	r25, Y+4	; 0x04
     d44:	0e 94 3c 23 	call	0x4678	; 0x4678 <__mulsf3>
     d48:	9b 01       	movw	r18, r22
     d4a:	ac 01       	movw	r20, r24
     d4c:	a9 82       	std	Y+1, r10	; 0x01
     d4e:	ba 82       	std	Y+2, r11	; 0x02
     d50:	cb 82       	std	Y+3, r12	; 0x03
     d52:	dc 82       	std	Y+4, r13	; 0x04
     d54:	69 81       	ldd	r22, Y+1	; 0x01
     d56:	7a 81       	ldd	r23, Y+2	; 0x02
     d58:	8b 81       	ldd	r24, Y+3	; 0x03
     d5a:	9c 81       	ldd	r25, Y+4	; 0x04
     d5c:	0e 94 6c 21 	call	0x42d8	; 0x42d8 <__addsf3>
     d60:	6b 01       	movw	r12, r22
     d62:	8c 01       	movw	r16, r24
     d64:	97 01       	movw	r18, r14
     d66:	ff 0c       	add	r15, r15
     d68:	44 0b       	sbc	r20, r20
     d6a:	55 0b       	sbc	r21, r21
     d6c:	29 83       	std	Y+1, r18	; 0x01
     d6e:	3a 83       	std	Y+2, r19	; 0x02
     d70:	4b 83       	std	Y+3, r20	; 0x03
     d72:	5c 83       	std	Y+4, r21	; 0x04
     d74:	ca 01       	movw	r24, r20
     d76:	b9 01       	movw	r22, r18
     d78:	0e 94 87 22 	call	0x450e	; 0x450e <__floatsisf>
     d7c:	ad 81       	ldd	r26, Y+5	; 0x05
     d7e:	be 81       	ldd	r27, Y+6	; 0x06
     d80:	5a 96       	adiw	r26, 0x1a	; 26
     d82:	2d 91       	ld	r18, X+
     d84:	3d 91       	ld	r19, X+
     d86:	4d 91       	ld	r20, X+
     d88:	5c 91       	ld	r21, X
     d8a:	5d 97       	sbiw	r26, 0x1d	; 29
     d8c:	69 83       	std	Y+1, r22	; 0x01
     d8e:	7a 83       	std	Y+2, r23	; 0x02
     d90:	8b 83       	std	Y+3, r24	; 0x03
     d92:	9c 83       	std	Y+4, r25	; 0x04
     d94:	69 81       	ldd	r22, Y+1	; 0x01
     d96:	7a 81       	ldd	r23, Y+2	; 0x02
     d98:	8b 81       	ldd	r24, Y+3	; 0x03
     d9a:	9c 81       	ldd	r25, Y+4	; 0x04
     d9c:	0e 94 3c 23 	call	0x4678	; 0x4678 <__mulsf3>
     da0:	9b 01       	movw	r18, r22
     da2:	ac 01       	movw	r20, r24
     da4:	c9 82       	std	Y+1, r12	; 0x01
     da6:	da 82       	std	Y+2, r13	; 0x02
     da8:	0b 83       	std	Y+3, r16	; 0x03
     daa:	1c 83       	std	Y+4, r17	; 0x04
     dac:	69 81       	ldd	r22, Y+1	; 0x01
     dae:	7a 81       	ldd	r23, Y+2	; 0x02
     db0:	8b 81       	ldd	r24, Y+3	; 0x03
     db2:	9c 81       	ldd	r25, Y+4	; 0x04
     db4:	0e 94 6c 21 	call	0x42d8	; 0x42d8 <__addsf3>
     db8:	69 83       	std	Y+1, r22	; 0x01
     dba:	7a 83       	std	Y+2, r23	; 0x02
     dbc:	8b 83       	std	Y+3, r24	; 0x03
     dbe:	9c 83       	std	Y+4, r25	; 0x04
     dc0:	69 81       	ldd	r22, Y+1	; 0x01
     dc2:	7a 81       	ldd	r23, Y+2	; 0x02
     dc4:	8b 81       	ldd	r24, Y+3	; 0x03
     dc6:	9c 81       	ldd	r25, Y+4	; 0x04
     dc8:	0e 94 4f 22 	call	0x449e	; 0x449e <__fixsfsi>
     dcc:	46 2f       	mov	r20, r22
     dce:	57 2f       	mov	r21, r23
     dd0:	ed 81       	ldd	r30, Y+5	; 0x05
     dd2:	fe 81       	ldd	r31, Y+6	; 0x06
     dd4:	20 89       	ldd	r18, Z+16	; 0x10
     dd6:	31 89       	ldd	r19, Z+17	; 0x11
     dd8:	24 9f       	mul	r18, r20
     dda:	c0 01       	movw	r24, r0
     ddc:	25 9f       	mul	r18, r21
     dde:	90 0d       	add	r25, r0
     de0:	34 9f       	mul	r19, r20
     de2:	90 0d       	add	r25, r0
     de4:	11 24       	eor	r1, r1
     de6:	91 a3       	std	Z+33, r25	; 0x21
     de8:	80 a3       	std	Z+32, r24	; 0x20
     dea:	24 85       	ldd	r18, Z+12	; 0x0c
     dec:	35 85       	ldd	r19, Z+13	; 0x0d
     dee:	28 17       	cp	r18, r24
     df0:	39 07       	cpc	r19, r25
     df2:	1c f5       	brge	.+70     	; 0xe3a <.L35>
     df4:	31 a3       	std	Z+33, r19	; 0x21
     df6:	20 a3       	std	Z+32, r18	; 0x20

00000df8 <.L36>:
     df8:	80 91 ac 06 	lds	r24, 0x06AC	; 0x8006ac <mainflag>
     dfc:	80 ff       	sbrs	r24, 0
     dfe:	0c c0       	rjmp	.+24     	; 0xe18 <.L32>
     e00:	ed 81       	ldd	r30, Y+5	; 0x05
     e02:	fe 81       	ldd	r31, Y+6	; 0x06
     e04:	85 a1       	ldd	r24, Z+37	; 0x25
     e06:	96 a1       	ldd	r25, Z+38	; 0x26
     e08:	01 96       	adiw	r24, 0x01	; 1
     e0a:	96 a3       	std	Z+38, r25	; 0x26
     e0c:	85 a3       	std	Z+37, r24	; 0x25
     e0e:	27 a1       	ldd	r18, Z+39	; 0x27
     e10:	30 a5       	ldd	r19, Z+40	; 0x28
     e12:	82 17       	cp	r24, r18
     e14:	93 07       	cpc	r25, r19
     e16:	20 f5       	brcc	.+72     	; 0xe60 <.L41>

00000e18 <.L32>:
     e18:	0f 90       	pop	r0
     e1a:	0f 90       	pop	r0
     e1c:	0f 90       	pop	r0
     e1e:	0f 90       	pop	r0
     e20:	0f 90       	pop	r0
     e22:	0f 90       	pop	r0
     e24:	df 91       	pop	r29
     e26:	cf 91       	pop	r28
     e28:	1f 91       	pop	r17
     e2a:	0f 91       	pop	r16
     e2c:	ff 90       	pop	r15
     e2e:	ef 90       	pop	r14
     e30:	df 90       	pop	r13
     e32:	cf 90       	pop	r12
     e34:	bf 90       	pop	r11
     e36:	af 90       	pop	r10
     e38:	08 95       	ret

00000e3a <.L35>:
     e3a:	26 85       	ldd	r18, Z+14	; 0x0e
     e3c:	37 85       	ldd	r19, Z+15	; 0x0f
     e3e:	82 17       	cp	r24, r18
     e40:	93 07       	cpc	r25, r19
     e42:	d4 f6       	brge	.-76     	; 0xdf8 <.L36>
     e44:	31 a3       	std	Z+33, r19	; 0x21
     e46:	20 a3       	std	Z+32, r18	; 0x20
     e48:	d7 cf       	rjmp	.-82     	; 0xdf8 <.L36>

00000e4a <.L33>:
     e4a:	fd 01       	movw	r30, r26
     e4c:	02 85       	ldd	r16, Z+10	; 0x0a
     e4e:	13 85       	ldd	r17, Z+11	; 0x0b
     e50:	20 17       	cp	r18, r16
     e52:	31 07       	cpc	r19, r17
     e54:	1c f4       	brge	.+6      	; 0xe5c <.L40>
     e56:	13 83       	std	Z+3, r17	; 0x03
     e58:	02 83       	std	Z+2, r16	; 0x02
     e5a:	29 cf       	rjmp	.-430    	; 0xcae <.L34>

00000e5c <.L40>:
     e5c:	89 01       	movw	r16, r18
     e5e:	27 cf       	rjmp	.-434    	; 0xcae <.L34>

00000e60 <.L41>:
     e60:	16 a2       	std	Z+38, r1	; 0x26
     e62:	15 a2       	std	Z+37, r1	; 0x25
     e64:	cf 01       	movw	r24, r30
     e66:	0f 90       	pop	r0
     e68:	0f 90       	pop	r0
     e6a:	0f 90       	pop	r0
     e6c:	0f 90       	pop	r0
     e6e:	0f 90       	pop	r0
     e70:	0f 90       	pop	r0
     e72:	df 91       	pop	r29
     e74:	cf 91       	pop	r28
     e76:	1f 91       	pop	r17
     e78:	0f 91       	pop	r16
     e7a:	ff 90       	pop	r15
     e7c:	ef 90       	pop	r14
     e7e:	df 90       	pop	r13
     e80:	cf 90       	pop	r12
     e82:	bf 90       	pop	r11
     e84:	af 90       	pop	r10
     e86:	0c 94 cb 05 	jmp	0xb96	; 0xb96 <pid_pwm_control>

00000e8a <indicator_setPortPin>:
     e8a:	ee e1       	ldi	r30, 0x1E	; 30
     e8c:	f5 e0       	ldi	r31, 0x05	; 5
     e8e:	90 87       	std	Z+8, r25	; 0x08
     e90:	87 83       	std	Z+7, r24	; 0x07
     e92:	61 87       	std	Z+9, r22	; 0x09
     e94:	08 95       	ret

00000e96 <indicatorTimed_setKSysTickTime_ms>:
     e96:	90 93 22 05 	sts	0x0522, r25	; 0x800522 <indicator+0x4>
     e9a:	80 93 21 05 	sts	0x0521, r24	; 0x800521 <indicator+0x3>
     e9e:	08 95       	ret

00000ea0 <indicatorTimed_run>:
     ea0:	81 e0       	ldi	r24, 0x01	; 1
     ea2:	80 93 1e 05 	sts	0x051E, r24	; 0x80051e <indicator>
     ea6:	08 95       	ret

00000ea8 <indicatorTimed_stop>:
     ea8:	ee e1       	ldi	r30, 0x1E	; 30
     eaa:	f5 e0       	ldi	r31, 0x05	; 5
     eac:	31 85       	ldd	r19, Z+9	; 0x09
     eae:	a7 81       	ldd	r26, Z+7	; 0x07
     eb0:	b0 85       	ldd	r27, Z+8	; 0x08
     eb2:	2c 91       	ld	r18, X
     eb4:	81 e0       	ldi	r24, 0x01	; 1
     eb6:	90 e0       	ldi	r25, 0x00	; 0
     eb8:	02 c0       	rjmp	.+4      	; 0xebe <.L2^B1>

00000eba <.L1^B1>:
     eba:	88 0f       	add	r24, r24
     ebc:	99 1f       	adc	r25, r25

00000ebe <.L2^B1>:
     ebe:	3a 95       	dec	r19
     ec0:	e2 f7       	brpl	.-8      	; 0xeba <.L1^B1>
     ec2:	80 95       	com	r24
     ec4:	90 95       	com	r25
     ec6:	82 23       	and	r24, r18
     ec8:	8c 93       	st	X, r24
     eca:	10 82       	st	Z, r1
     ecc:	08 95       	ret

00000ece <indicatorTimed_cycle_start>:
     ece:	83 e0       	ldi	r24, 0x03	; 3
     ed0:	80 93 1e 05 	sts	0x051E, r24	; 0x80051e <indicator>
     ed4:	08 95       	ret

00000ed6 <indicator_on>:
     ed6:	ee e1       	ldi	r30, 0x1E	; 30
     ed8:	f5 e0       	ldi	r31, 0x05	; 5
     eda:	91 85       	ldd	r25, Z+9	; 0x09
     edc:	07 80       	ldd	r0, Z+7	; 0x07
     ede:	f0 85       	ldd	r31, Z+8	; 0x08
     ee0:	e0 2d       	mov	r30, r0
     ee2:	80 81       	ld	r24, Z
     ee4:	21 e0       	ldi	r18, 0x01	; 1
     ee6:	30 e0       	ldi	r19, 0x00	; 0
     ee8:	01 c0       	rjmp	.+2      	; 0xeec <.L2^B2>

00000eea <.L1^B2>:
     eea:	22 0f       	add	r18, r18

00000eec <.L2^B2>:
     eec:	9a 95       	dec	r25
     eee:	ea f7       	brpl	.-6      	; 0xeea <.L1^B2>
     ef0:	82 2b       	or	r24, r18
     ef2:	80 83       	st	Z, r24
     ef4:	08 95       	ret

00000ef6 <indicator_off>:
     ef6:	ee e1       	ldi	r30, 0x1E	; 30
     ef8:	f5 e0       	ldi	r31, 0x05	; 5
     efa:	31 85       	ldd	r19, Z+9	; 0x09
     efc:	07 80       	ldd	r0, Z+7	; 0x07
     efe:	f0 85       	ldd	r31, Z+8	; 0x08
     f00:	e0 2d       	mov	r30, r0
     f02:	20 81       	ld	r18, Z
     f04:	81 e0       	ldi	r24, 0x01	; 1
     f06:	90 e0       	ldi	r25, 0x00	; 0
     f08:	02 c0       	rjmp	.+4      	; 0xf0e <.L2^B3>

00000f0a <.L1^B3>:
     f0a:	88 0f       	add	r24, r24
     f0c:	99 1f       	adc	r25, r25

00000f0e <.L2^B3>:
     f0e:	3a 95       	dec	r19
     f10:	e2 f7       	brpl	.-8      	; 0xf0a <.L1^B3>
     f12:	80 95       	com	r24
     f14:	90 95       	com	r25
     f16:	82 23       	and	r24, r18
     f18:	80 83       	st	Z, r24
     f1a:	08 95       	ret

00000f1c <indicatorTimed_job>:
     f1c:	80 91 1e 05 	lds	r24, 0x051E	; 0x80051e <indicator>
     f20:	81 30       	cpi	r24, 0x01	; 1
     f22:	09 f4       	brne	.+2      	; 0xf26 <L0^A+0x2>

00000f24 <L0^A>:
     f24:	72 c0       	rjmp	.+228    	; 0x100a <.L24>
     f26:	80 91 1e 05 	lds	r24, 0x051E	; 0x80051e <indicator>
     f2a:	82 30       	cpi	r24, 0x02	; 2
     f2c:	21 f1       	breq	.+72     	; 0xf76 <.L25>

00000f2e <.L11>:
     f2e:	80 91 1e 05 	lds	r24, 0x051E	; 0x80051e <indicator>
     f32:	83 30       	cpi	r24, 0x03	; 3
     f34:	09 f4       	brne	.+2      	; 0xf38 <L0^A+0x2>

00000f36 <L0^A>:
     f36:	50 c0       	rjmp	.+160    	; 0xfd8 <.L26>
     f38:	80 91 1e 05 	lds	r24, 0x051E	; 0x80051e <indicator>
     f3c:	84 30       	cpi	r24, 0x04	; 4
     f3e:	09 f0       	breq	.+2      	; 0xf42 <.L27>

00000f40 <.L9>:
     f40:	08 95       	ret

00000f42 <.L27>:
     f42:	80 91 ac 06 	lds	r24, 0x06AC	; 0x8006ac <mainflag>
     f46:	80 ff       	sbrs	r24, 0
     f48:	fb cf       	rjmp	.-10     	; 0xf40 <.L9>
     f4a:	80 91 1f 05 	lds	r24, 0x051F	; 0x80051f <indicator+0x1>
     f4e:	90 91 20 05 	lds	r25, 0x0520	; 0x800520 <indicator+0x2>
     f52:	01 96       	adiw	r24, 0x01	; 1
     f54:	90 93 20 05 	sts	0x0520, r25	; 0x800520 <indicator+0x2>
     f58:	80 93 1f 05 	sts	0x051F, r24	; 0x80051f <indicator+0x1>
     f5c:	20 91 21 05 	lds	r18, 0x0521	; 0x800521 <indicator+0x3>
     f60:	30 91 22 05 	lds	r19, 0x0522	; 0x800522 <indicator+0x4>
     f64:	82 17       	cp	r24, r18
     f66:	93 07       	cpc	r25, r19
     f68:	58 f3       	brcs	.-42     	; 0xf40 <.L9>
     f6a:	80 91 1e 05 	lds	r24, 0x051E	; 0x80051e <indicator>
     f6e:	81 50       	subi	r24, 0x01	; 1
     f70:	80 93 1e 05 	sts	0x051E, r24	; 0x80051e <indicator>
     f74:	08 95       	ret

00000f76 <.L25>:
     f76:	80 91 ac 06 	lds	r24, 0x06AC	; 0x8006ac <mainflag>
     f7a:	80 ff       	sbrs	r24, 0
     f7c:	d8 cf       	rjmp	.-80     	; 0xf2e <.L11>
     f7e:	80 91 1f 05 	lds	r24, 0x051F	; 0x80051f <indicator+0x1>
     f82:	90 91 20 05 	lds	r25, 0x0520	; 0x800520 <indicator+0x2>
     f86:	01 96       	adiw	r24, 0x01	; 1
     f88:	90 93 20 05 	sts	0x0520, r25	; 0x800520 <indicator+0x2>
     f8c:	80 93 1f 05 	sts	0x051F, r24	; 0x80051f <indicator+0x1>
     f90:	20 91 1f 05 	lds	r18, 0x051F	; 0x80051f <indicator+0x1>
     f94:	30 91 20 05 	lds	r19, 0x0520	; 0x800520 <indicator+0x2>
     f98:	80 91 21 05 	lds	r24, 0x0521	; 0x800521 <indicator+0x3>
     f9c:	90 91 22 05 	lds	r25, 0x0522	; 0x800522 <indicator+0x4>
     fa0:	28 17       	cp	r18, r24
     fa2:	39 07       	cpc	r19, r25
     fa4:	20 f2       	brcs	.-120    	; 0xf2e <.L11>
     fa6:	10 92 20 05 	sts	0x0520, r1	; 0x800520 <indicator+0x2>
     faa:	10 92 1f 05 	sts	0x051F, r1	; 0x80051f <indicator+0x1>
     fae:	30 91 27 05 	lds	r19, 0x0527	; 0x800527 <indicator+0x9>
     fb2:	e0 91 25 05 	lds	r30, 0x0525	; 0x800525 <indicator+0x7>
     fb6:	f0 91 26 05 	lds	r31, 0x0526	; 0x800526 <indicator+0x8>
     fba:	20 81       	ld	r18, Z
     fbc:	81 e0       	ldi	r24, 0x01	; 1
     fbe:	90 e0       	ldi	r25, 0x00	; 0
     fc0:	02 c0       	rjmp	.+4      	; 0xfc6 <.L2^B4>

00000fc2 <.L1^B4>:
     fc2:	88 0f       	add	r24, r24
     fc4:	99 1f       	adc	r25, r25

00000fc6 <.L2^B4>:
     fc6:	3a 95       	dec	r19
     fc8:	e2 f7       	brpl	.-8      	; 0xfc2 <.L1^B4>
     fca:	80 95       	com	r24
     fcc:	90 95       	com	r25
     fce:	82 23       	and	r24, r18
     fd0:	80 83       	st	Z, r24
     fd2:	10 92 1e 05 	sts	0x051E, r1	; 0x80051e <indicator>
     fd6:	ab cf       	rjmp	.-170    	; 0xf2e <.L11>

00000fd8 <.L26>:
     fd8:	90 91 27 05 	lds	r25, 0x0527	; 0x800527 <indicator+0x9>
     fdc:	e0 91 25 05 	lds	r30, 0x0525	; 0x800525 <indicator+0x7>
     fe0:	f0 91 26 05 	lds	r31, 0x0526	; 0x800526 <indicator+0x8>
     fe4:	80 81       	ld	r24, Z
     fe6:	21 e0       	ldi	r18, 0x01	; 1
     fe8:	30 e0       	ldi	r19, 0x00	; 0
     fea:	01 c0       	rjmp	.+2      	; 0xfee <.L2^B5>

00000fec <.L1^B5>:
     fec:	22 0f       	add	r18, r18

00000fee <.L2^B5>:
     fee:	9a 95       	dec	r25
     ff0:	ea f7       	brpl	.-6      	; 0xfec <.L1^B5>
     ff2:	82 27       	eor	r24, r18
     ff4:	80 83       	st	Z, r24
     ff6:	10 92 20 05 	sts	0x0520, r1	; 0x800520 <indicator+0x2>
     ffa:	10 92 1f 05 	sts	0x051F, r1	; 0x80051f <indicator+0x1>
     ffe:	80 91 1e 05 	lds	r24, 0x051E	; 0x80051e <indicator>
    1002:	8f 5f       	subi	r24, 0xFF	; 255
    1004:	80 93 1e 05 	sts	0x051E, r24	; 0x80051e <indicator>
    1008:	08 95       	ret

0000100a <.L24>:
    100a:	90 91 27 05 	lds	r25, 0x0527	; 0x800527 <indicator+0x9>
    100e:	e0 91 25 05 	lds	r30, 0x0525	; 0x800525 <indicator+0x7>
    1012:	f0 91 26 05 	lds	r31, 0x0526	; 0x800526 <indicator+0x8>
    1016:	80 81       	ld	r24, Z
    1018:	21 e0       	ldi	r18, 0x01	; 1
    101a:	30 e0       	ldi	r19, 0x00	; 0
    101c:	01 c0       	rjmp	.+2      	; 0x1020 <.L2^B6>

0000101e <.L1^B6>:
    101e:	22 0f       	add	r18, r18

00001020 <.L2^B6>:
    1020:	9a 95       	dec	r25
    1022:	ea f7       	brpl	.-6      	; 0x101e <.L1^B6>
    1024:	82 2b       	or	r24, r18
    1026:	80 83       	st	Z, r24
    1028:	10 92 20 05 	sts	0x0520, r1	; 0x800520 <indicator+0x2>
    102c:	10 92 1f 05 	sts	0x051F, r1	; 0x80051f <indicator+0x1>
    1030:	80 91 1e 05 	lds	r24, 0x051E	; 0x80051e <indicator>
    1034:	8f 5f       	subi	r24, 0xFF	; 255
    1036:	80 93 1e 05 	sts	0x051E, r24	; 0x80051e <indicator>
    103a:	79 cf       	rjmp	.-270    	; 0xf2e <.L11>

0000103c <keyRead_pin_key0>:
    103c:	80 b3       	in	r24, 0x10	; 16
    103e:	86 95       	lsr	r24
    1040:	81 70       	andi	r24, 0x01	; 1
    1042:	08 95       	ret

00001044 <keyRead_pin_key1>:
    1044:	80 b3       	in	r24, 0x10	; 16
    1046:	81 70       	andi	r24, 0x01	; 1
    1048:	08 95       	ret

0000104a <keyRead_pin_key2>:
    104a:	86 b3       	in	r24, 0x16	; 22
    104c:	83 fb       	bst	r24, 3
    104e:	88 27       	eor	r24, r24
    1050:	80 f9       	bld	r24, 0
    1052:	08 95       	ret

00001054 <keyRead_pin_key3>:
    1054:	80 b3       	in	r24, 0x10	; 16
    1056:	86 fb       	bst	r24, 6
    1058:	88 27       	eor	r24, r24
    105a:	80 f9       	bld	r24, 0
    105c:	08 95       	ret

0000105e <keyRead_pin_key4>:
    105e:	89 b3       	in	r24, 0x19	; 25
    1060:	86 95       	lsr	r24
    1062:	81 70       	andi	r24, 0x01	; 1
    1064:	08 95       	ret

00001066 <keyRead_pin_key5>:
    1066:	86 b3       	in	r24, 0x16	; 22
    1068:	81 70       	andi	r24, 0x01	; 1
    106a:	08 95       	ret

0000106c <keyRead_pin_key6>:
    106c:	89 b3       	in	r24, 0x19	; 25
    106e:	83 fb       	bst	r24, 3
    1070:	88 27       	eor	r24, r24
    1072:	80 f9       	bld	r24, 0
    1074:	08 95       	ret

00001076 <ikb_setKeyProp>:
    1076:	cf 93       	push	r28
    1078:	df 93       	push	r29
    107a:	00 d0       	rcall	.+0      	; 0x107c <L0^A>

0000107c <L0^A>:
    107c:	00 d0       	rcall	.+0      	; 0x107e <L0^A>

0000107e <L0^A>:
    107e:	00 d0       	rcall	.+0      	; 0x1080 <L0^A>

00001080 <L0^A>:
    1080:	cd b7       	in	r28, 0x3d	; 61
    1082:	de b7       	in	r29, 0x3e	; 62
    1084:	29 83       	std	Y+1, r18	; 0x01
    1086:	3a 83       	std	Y+2, r19	; 0x02
    1088:	4b 83       	std	Y+3, r20	; 0x03
    108a:	5c 83       	std	Y+4, r21	; 0x04
    108c:	6d 83       	std	Y+5, r22	; 0x05
    108e:	7e 83       	std	Y+6, r23	; 0x06
    1090:	90 e1       	ldi	r25, 0x10	; 16
    1092:	89 9f       	mul	r24, r25
    1094:	d0 01       	movw	r26, r0
    1096:	11 24       	eor	r1, r1
    1098:	a8 5c       	subi	r26, 0xC8	; 200
    109a:	ba 4f       	sbci	r27, 0xFA	; 250
    109c:	86 e0       	ldi	r24, 0x06	; 6
    109e:	fe 01       	movw	r30, r28
    10a0:	31 96       	adiw	r30, 0x01	; 1

000010a2 <.L^B1>:
    10a2:	01 90       	ld	r0, Z+
    10a4:	0d 92       	st	X+, r0
    10a6:	8a 95       	dec	r24
    10a8:	e1 f7       	brne	.-8      	; 0x10a2 <.L^B1>
    10aa:	0f 90       	pop	r0
    10ac:	0f 90       	pop	r0
    10ae:	0f 90       	pop	r0
    10b0:	0f 90       	pop	r0
    10b2:	0f 90       	pop	r0
    10b4:	0f 90       	pop	r0
    10b6:	df 91       	pop	r29
    10b8:	cf 91       	pop	r28
    10ba:	08 95       	ret

000010bc <ikb_init>:
    10bc:	cf 93       	push	r28
    10be:	df 93       	push	r29
    10c0:	cd b7       	in	r28, 0x3d	; 61
    10c2:	de b7       	in	r29, 0x3e	; 62
    10c4:	2c 97       	sbiw	r28, 0x0c	; 12
    10c6:	0f b6       	in	r0, 0x3f	; 63
    10c8:	f8 94       	cli
    10ca:	de bf       	out	0x3e, r29	; 62
    10cc:	0f be       	out	0x3f, r0	; 63
    10ce:	cd bf       	out	0x3d, r28	; 61
    10d0:	89 98       	cbi	0x11, 1	; 17
    10d2:	88 98       	cbi	0x11, 0	; 17
    10d4:	bb 98       	cbi	0x17, 3	; 23
    10d6:	8e 98       	cbi	0x11, 6	; 17
    10d8:	d1 98       	cbi	0x1a, 1	; 26
    10da:	b8 98       	cbi	0x17, 0	; 23
    10dc:	d3 98       	cbi	0x1a, 3	; 26
    10de:	ef e2       	ldi	r30, 0x2F	; 47
    10e0:	f5 e0       	ldi	r31, 0x05	; 5
    10e2:	8e e1       	ldi	r24, 0x1E	; 30
    10e4:	98 e0       	ldi	r25, 0x08	; 8
    10e6:	91 83       	std	Z+1, r25	; 0x01
    10e8:	80 83       	st	Z, r24
    10ea:	82 e2       	ldi	r24, 0x22	; 34
    10ec:	98 e0       	ldi	r25, 0x08	; 8
    10ee:	91 8b       	std	Z+17, r25	; 0x11
    10f0:	80 8b       	std	Z+16, r24	; 0x10
    10f2:	85 e2       	ldi	r24, 0x25	; 37
    10f4:	98 e0       	ldi	r25, 0x08	; 8
    10f6:	91 a3       	std	Z+33, r25	; 0x21
    10f8:	80 a3       	std	Z+32, r24	; 0x20
    10fa:	8a e2       	ldi	r24, 0x2A	; 42
    10fc:	98 e0       	ldi	r25, 0x08	; 8
    10fe:	91 ab       	std	Z+49, r25	; 0x31
    1100:	80 ab       	std	Z+48, r24	; 0x30
    1102:	8f e2       	ldi	r24, 0x2F	; 47
    1104:	98 e0       	ldi	r25, 0x08	; 8
    1106:	90 93 70 05 	sts	0x0570, r25	; 0x800570 <key+0x41>
    110a:	80 93 6f 05 	sts	0x056F, r24	; 0x80056f <key+0x40>
    110e:	83 e3       	ldi	r24, 0x33	; 51
    1110:	98 e0       	ldi	r25, 0x08	; 8
    1112:	90 93 80 05 	sts	0x0580, r25	; 0x800580 <key+0x51>
    1116:	80 93 7f 05 	sts	0x057F, r24	; 0x80057f <key+0x50>
    111a:	86 e3       	ldi	r24, 0x36	; 54
    111c:	98 e0       	ldi	r25, 0x08	; 8
    111e:	90 93 90 05 	sts	0x0590, r25	; 0x800590 <key+0x61>
    1122:	80 93 8f 05 	sts	0x058F, r24	; 0x80058f <key+0x60>
    1126:	ce 01       	movw	r24, r28
    1128:	07 96       	adiw	r24, 0x07	; 7
    112a:	26 e0       	ldi	r18, 0x06	; 6
    112c:	fc 01       	movw	r30, r24

0000112e <.L^B2>:
    112e:	11 92       	st	Z+, r1
    1130:	2a 95       	dec	r18
    1132:	e9 f7       	brne	.-6      	; 0x112e <.L^B2>
    1134:	2f 81       	ldd	r18, Y+7	; 0x07
    1136:	21 60       	ori	r18, 0x01	; 1
    1138:	2f 83       	std	Y+7, r18	; 0x07
    113a:	26 e0       	ldi	r18, 0x06	; 6
    113c:	fc 01       	movw	r30, r24
    113e:	de 01       	movw	r26, r28
    1140:	11 96       	adiw	r26, 0x01	; 1

00001142 <.L^B3>:
    1142:	01 90       	ld	r0, Z+
    1144:	0d 92       	st	X+, r0
    1146:	2a 95       	dec	r18
    1148:	e1 f7       	brne	.-8      	; 0x1142 <.L^B3>
    114a:	26 e0       	ldi	r18, 0x06	; 6
    114c:	fe 01       	movw	r30, r28
    114e:	31 96       	adiw	r30, 0x01	; 1
    1150:	a8 e3       	ldi	r26, 0x38	; 56
    1152:	b5 e0       	ldi	r27, 0x05	; 5

00001154 <.L^B4>:
    1154:	01 90       	ld	r0, Z+
    1156:	0d 92       	st	X+, r0
    1158:	2a 95       	dec	r18
    115a:	e1 f7       	brne	.-8      	; 0x1154 <.L^B4>
    115c:	26 e0       	ldi	r18, 0x06	; 6
    115e:	fc 01       	movw	r30, r24
    1160:	de 01       	movw	r26, r28
    1162:	11 96       	adiw	r26, 0x01	; 1

00001164 <.L^B5>:
    1164:	01 90       	ld	r0, Z+
    1166:	0d 92       	st	X+, r0
    1168:	2a 95       	dec	r18
    116a:	e1 f7       	brne	.-8      	; 0x1164 <.L^B5>
    116c:	26 e0       	ldi	r18, 0x06	; 6
    116e:	fe 01       	movw	r30, r28
    1170:	31 96       	adiw	r30, 0x01	; 1
    1172:	a8 e4       	ldi	r26, 0x48	; 72
    1174:	b5 e0       	ldi	r27, 0x05	; 5

00001176 <.L^B6>:
    1176:	01 90       	ld	r0, Z+
    1178:	0d 92       	st	X+, r0
    117a:	2a 95       	dec	r18
    117c:	e1 f7       	brne	.-8      	; 0x1176 <.L^B6>
    117e:	26 e0       	ldi	r18, 0x06	; 6
    1180:	fc 01       	movw	r30, r24
    1182:	de 01       	movw	r26, r28
    1184:	11 96       	adiw	r26, 0x01	; 1

00001186 <.L^B7>:
    1186:	01 90       	ld	r0, Z+
    1188:	0d 92       	st	X+, r0
    118a:	2a 95       	dec	r18
    118c:	e1 f7       	brne	.-8      	; 0x1186 <.L^B7>
    118e:	26 e0       	ldi	r18, 0x06	; 6
    1190:	fe 01       	movw	r30, r28
    1192:	31 96       	adiw	r30, 0x01	; 1
    1194:	a8 e5       	ldi	r26, 0x58	; 88
    1196:	b5 e0       	ldi	r27, 0x05	; 5

00001198 <.L^B8>:
    1198:	01 90       	ld	r0, Z+
    119a:	0d 92       	st	X+, r0
    119c:	2a 95       	dec	r18
    119e:	e1 f7       	brne	.-8      	; 0x1198 <.L^B8>
    11a0:	26 e0       	ldi	r18, 0x06	; 6
    11a2:	fc 01       	movw	r30, r24
    11a4:	de 01       	movw	r26, r28
    11a6:	11 96       	adiw	r26, 0x01	; 1

000011a8 <.L^B9>:
    11a8:	01 90       	ld	r0, Z+
    11aa:	0d 92       	st	X+, r0
    11ac:	2a 95       	dec	r18
    11ae:	e1 f7       	brne	.-8      	; 0x11a8 <.L^B9>
    11b0:	26 e0       	ldi	r18, 0x06	; 6
    11b2:	fe 01       	movw	r30, r28
    11b4:	31 96       	adiw	r30, 0x01	; 1
    11b6:	a8 e6       	ldi	r26, 0x68	; 104
    11b8:	b5 e0       	ldi	r27, 0x05	; 5

000011ba <.L^B10>:
    11ba:	01 90       	ld	r0, Z+
    11bc:	0d 92       	st	X+, r0
    11be:	2a 95       	dec	r18
    11c0:	e1 f7       	brne	.-8      	; 0x11ba <.L^B10>
    11c2:	26 e0       	ldi	r18, 0x06	; 6
    11c4:	fc 01       	movw	r30, r24
    11c6:	de 01       	movw	r26, r28
    11c8:	11 96       	adiw	r26, 0x01	; 1

000011ca <.L^B11>:
    11ca:	01 90       	ld	r0, Z+
    11cc:	0d 92       	st	X+, r0
    11ce:	2a 95       	dec	r18
    11d0:	e1 f7       	brne	.-8      	; 0x11ca <.L^B11>
    11d2:	26 e0       	ldi	r18, 0x06	; 6
    11d4:	fe 01       	movw	r30, r28
    11d6:	31 96       	adiw	r30, 0x01	; 1
    11d8:	a8 e7       	ldi	r26, 0x78	; 120
    11da:	b5 e0       	ldi	r27, 0x05	; 5

000011dc <.L^B12>:
    11dc:	01 90       	ld	r0, Z+
    11de:	0d 92       	st	X+, r0
    11e0:	2a 95       	dec	r18
    11e2:	e1 f7       	brne	.-8      	; 0x11dc <.L^B12>
    11e4:	26 e0       	ldi	r18, 0x06	; 6
    11e6:	fc 01       	movw	r30, r24
    11e8:	de 01       	movw	r26, r28
    11ea:	11 96       	adiw	r26, 0x01	; 1

000011ec <.L^B13>:
    11ec:	01 90       	ld	r0, Z+
    11ee:	0d 92       	st	X+, r0
    11f0:	2a 95       	dec	r18
    11f2:	e1 f7       	brne	.-8      	; 0x11ec <.L^B13>
    11f4:	26 e0       	ldi	r18, 0x06	; 6
    11f6:	fe 01       	movw	r30, r28
    11f8:	31 96       	adiw	r30, 0x01	; 1
    11fa:	a8 e8       	ldi	r26, 0x88	; 136
    11fc:	b5 e0       	ldi	r27, 0x05	; 5

000011fe <.L^B14>:
    11fe:	01 90       	ld	r0, Z+
    1200:	0d 92       	st	X+, r0
    1202:	2a 95       	dec	r18
    1204:	e1 f7       	brne	.-8      	; 0x11fe <.L^B14>
    1206:	26 e0       	ldi	r18, 0x06	; 6
    1208:	fc 01       	movw	r30, r24
    120a:	de 01       	movw	r26, r28
    120c:	11 96       	adiw	r26, 0x01	; 1

0000120e <.L^B15>:
    120e:	01 90       	ld	r0, Z+
    1210:	0d 92       	st	X+, r0
    1212:	2a 95       	dec	r18
    1214:	e1 f7       	brne	.-8      	; 0x120e <.L^B15>
    1216:	86 e0       	ldi	r24, 0x06	; 6
    1218:	fe 01       	movw	r30, r28
    121a:	31 96       	adiw	r30, 0x01	; 1
    121c:	a8 e9       	ldi	r26, 0x98	; 152
    121e:	b5 e0       	ldi	r27, 0x05	; 5

00001220 <.L^B16>:
    1220:	01 90       	ld	r0, Z+
    1222:	0d 92       	st	X+, r0
    1224:	8a 95       	dec	r24
    1226:	e1 f7       	brne	.-8      	; 0x1220 <.L^B16>
    1228:	2c 96       	adiw	r28, 0x0c	; 12
    122a:	0f b6       	in	r0, 0x3f	; 63
    122c:	f8 94       	cli
    122e:	de bf       	out	0x3e, r29	; 62
    1230:	0f be       	out	0x3f, r0	; 63
    1232:	cd bf       	out	0x3d, r28	; 61
    1234:	df 91       	pop	r29
    1236:	cf 91       	pop	r28
    1238:	08 95       	ret

0000123a <ikb_flush>:
    123a:	ee e3       	ldi	r30, 0x3E	; 62
    123c:	f5 e0       	ldi	r31, 0x05	; 5
    123e:	80 81       	ld	r24, Z
    1240:	8d 7f       	andi	r24, 0xFD	; 253
    1242:	80 83       	st	Z, r24
    1244:	ee e4       	ldi	r30, 0x4E	; 78
    1246:	f5 e0       	ldi	r31, 0x05	; 5
    1248:	80 81       	ld	r24, Z
    124a:	8d 7f       	andi	r24, 0xFD	; 253
    124c:	80 83       	st	Z, r24
    124e:	ee e5       	ldi	r30, 0x5E	; 94
    1250:	f5 e0       	ldi	r31, 0x05	; 5
    1252:	80 81       	ld	r24, Z
    1254:	8d 7f       	andi	r24, 0xFD	; 253
    1256:	80 83       	st	Z, r24
    1258:	ee e6       	ldi	r30, 0x6E	; 110
    125a:	f5 e0       	ldi	r31, 0x05	; 5
    125c:	80 81       	ld	r24, Z
    125e:	8d 7f       	andi	r24, 0xFD	; 253
    1260:	80 83       	st	Z, r24
    1262:	ee e7       	ldi	r30, 0x7E	; 126
    1264:	f5 e0       	ldi	r31, 0x05	; 5
    1266:	80 81       	ld	r24, Z
    1268:	8d 7f       	andi	r24, 0xFD	; 253
    126a:	80 83       	st	Z, r24
    126c:	ee e8       	ldi	r30, 0x8E	; 142
    126e:	f5 e0       	ldi	r31, 0x05	; 5
    1270:	80 81       	ld	r24, Z
    1272:	8d 7f       	andi	r24, 0xFD	; 253
    1274:	80 83       	st	Z, r24
    1276:	ee e9       	ldi	r30, 0x9E	; 158
    1278:	f5 e0       	ldi	r31, 0x05	; 5
    127a:	80 81       	ld	r24, Z
    127c:	8d 7f       	andi	r24, 0xFD	; 253
    127e:	80 83       	st	Z, r24
    1280:	08 95       	ret

00001282 <ikb_get_AtTimeExpired_BeforeOrAfter>:
    1282:	90 e1       	ldi	r25, 0x10	; 16
    1284:	89 9f       	mul	r24, r25
    1286:	f0 01       	movw	r30, r0
    1288:	11 24       	eor	r1, r1
    128a:	e2 5c       	subi	r30, 0xC2	; 194
    128c:	fa 4f       	sbci	r31, 0xFA	; 250
    128e:	80 81       	ld	r24, Z
    1290:	82 fb       	bst	r24, 2
    1292:	88 27       	eor	r24, r24
    1294:	80 f9       	bld	r24, 0
    1296:	08 95       	ret

00001298 <ikb_key_is_ready2read>:
    1298:	90 e1       	ldi	r25, 0x10	; 16
    129a:	89 9f       	mul	r24, r25
    129c:	f0 01       	movw	r30, r0
    129e:	11 24       	eor	r1, r1
    12a0:	e2 5c       	subi	r30, 0xC2	; 194
    12a2:	fa 4f       	sbci	r31, 0xFA	; 250
    12a4:	80 81       	ld	r24, Z
    12a6:	86 95       	lsr	r24
    12a8:	81 70       	andi	r24, 0x01	; 1
    12aa:	08 95       	ret

000012ac <ikb_set_ready2read>:
    12ac:	90 e1       	ldi	r25, 0x10	; 16
    12ae:	89 9f       	mul	r24, r25
    12b0:	f0 01       	movw	r30, r0
    12b2:	11 24       	eor	r1, r1
    12b4:	e2 5c       	subi	r30, 0xC2	; 194
    12b6:	fa 4f       	sbci	r31, 0xFA	; 250
    12b8:	80 81       	ld	r24, Z
    12ba:	82 60       	ori	r24, 0x02	; 2
    12bc:	80 83       	st	Z, r24
    12be:	08 95       	ret

000012c0 <ikb_key_was_read>:
    12c0:	90 e1       	ldi	r25, 0x10	; 16
    12c2:	89 9f       	mul	r24, r25
    12c4:	f0 01       	movw	r30, r0
    12c6:	11 24       	eor	r1, r1
    12c8:	e2 5c       	subi	r30, 0xC2	; 194
    12ca:	fa 4f       	sbci	r31, 0xFA	; 250
    12cc:	80 81       	ld	r24, Z
    12ce:	8d 7f       	andi	r24, 0xFD	; 253
    12d0:	80 83       	st	Z, r24
    12d2:	08 95       	ret

000012d4 <ikb_execfunct>:
    12d4:	90 e1       	ldi	r25, 0x10	; 16
    12d6:	89 9f       	mul	r24, r25
    12d8:	f0 01       	movw	r30, r0
    12da:	11 24       	eor	r1, r1
    12dc:	e1 5d       	subi	r30, 0xD1	; 209
    12de:	fa 4f       	sbci	r31, 0xFA	; 250
    12e0:	02 80       	ldd	r0, Z+2	; 0x02
    12e2:	f3 81       	ldd	r31, Z+3	; 0x03
    12e4:	e0 2d       	mov	r30, r0
    12e6:	09 94       	ijmp

000012e8 <ikb_getKeyState>:
    12e8:	90 e1       	ldi	r25, 0x10	; 16
    12ea:	89 02       	muls	r24, r25
    12ec:	f0 01       	movw	r30, r0
    12ee:	11 24       	eor	r1, r1
    12f0:	e2 5c       	subi	r30, 0xC2	; 194
    12f2:	fa 4f       	sbci	r31, 0xFA	; 250
    12f4:	80 81       	ld	r24, Z
    12f6:	81 70       	andi	r24, 0x01	; 1
    12f8:	08 95       	ret

000012fa <ikb_getKeyStartPressed>:
    12fa:	90 e1       	ldi	r25, 0x10	; 16
    12fc:	89 02       	muls	r24, r25
    12fe:	f0 01       	movw	r30, r0
    1300:	11 24       	eor	r1, r1
    1302:	e2 5c       	subi	r30, 0xC2	; 194
    1304:	fa 4f       	sbci	r31, 0xFA	; 250
    1306:	80 81       	ld	r24, Z
    1308:	85 fb       	bst	r24, 5
    130a:	88 27       	eor	r24, r24
    130c:	80 f9       	bld	r24, 0
    130e:	08 95       	ret

00001310 <ikb_clearKeyStartPressed>:
    1310:	90 e1       	ldi	r25, 0x10	; 16
    1312:	89 02       	muls	r24, r25
    1314:	f0 01       	movw	r30, r0
    1316:	11 24       	eor	r1, r1
    1318:	e2 5c       	subi	r30, 0xC2	; 194
    131a:	fa 4f       	sbci	r31, 0xFA	; 250
    131c:	80 81       	ld	r24, Z
    131e:	8f 7d       	andi	r24, 0xDF	; 223
    1320:	80 83       	st	Z, r24
    1322:	08 95       	ret

00001324 <ikey_scan>:
    1324:	ef 92       	push	r14
    1326:	ff 92       	push	r15
    1328:	0f 93       	push	r16
    132a:	1f 93       	push	r17
    132c:	cf 93       	push	r28
    132e:	df 93       	push	r29
    1330:	06 e0       	ldi	r16, 0x06	; 6
    1332:	10 e0       	ldi	r17, 0x00	; 0
    1334:	0c c0       	rjmp	.+24     	; 0x134e <.L29>

00001336 <.L34>:
    1336:	e8 81       	ld	r30, Y
    1338:	f9 81       	ldd	r31, Y+1	; 0x01
    133a:	09 95       	icall
    133c:	81 11       	cpse	r24, r1
    133e:	03 c0       	rjmp	.+6      	; 0x1346 <.L23>

00001340 <.L31>:
    1340:	8c 81       	ldd	r24, Y+4	; 0x04
    1342:	8f 5f       	subi	r24, 0xFF	; 255
    1344:	8c 83       	std	Y+4, r24	; 0x04

00001346 <.L23>:
    1346:	01 50       	subi	r16, 0x01	; 1
    1348:	11 09       	sbc	r17, r1
    134a:	08 f4       	brcc	.+2      	; 0x134e <.L29>

0000134c <L0^A>:
    134c:	40 c0       	rjmp	.+128    	; 0x13ce <.L33>

0000134e <.L29>:
    134e:	8a e1       	ldi	r24, 0x1A	; 26

00001350 <.L1^B1>:
    1350:	8a 95       	dec	r24
    1352:	f1 f7       	brne	.-4      	; 0x1350 <.L1^B1>
    1354:	00 c0       	rjmp	.+0      	; 0x1356 <L0^A>

00001356 <L0^A>:
    1356:	78 01       	movw	r14, r16
    1358:	e2 94       	swap	r14
    135a:	f2 94       	swap	r15
    135c:	80 ef       	ldi	r24, 0xF0	; 240
    135e:	f8 22       	and	r15, r24
    1360:	fe 24       	eor	r15, r14
    1362:	e8 22       	and	r14, r24
    1364:	fe 24       	eor	r15, r14
    1366:	e7 01       	movw	r28, r14
    1368:	c1 5d       	subi	r28, 0xD1	; 209
    136a:	da 4f       	sbci	r29, 0xFA	; 250
    136c:	8c 81       	ldd	r24, Y+4	; 0x04
    136e:	88 23       	and	r24, r24
    1370:	11 f3       	breq	.-60     	; 0x1336 <.L34>
    1372:	8c 81       	ldd	r24, Y+4	; 0x04
    1374:	81 30       	cpi	r24, 0x01	; 1
    1376:	c9 f0       	breq	.+50     	; 0x13aa <.L35>
    1378:	8c 81       	ldd	r24, Y+4	; 0x04
    137a:	82 30       	cpi	r24, 0x02	; 2
    137c:	79 f1       	breq	.+94     	; 0x13dc <.L36>
    137e:	8c 81       	ldd	r24, Y+4	; 0x04
    1380:	83 30       	cpi	r24, 0x03	; 3
    1382:	09 f7       	brne	.-62     	; 0x1346 <.L23>
    1384:	8d 81       	ldd	r24, Y+5	; 0x05
    1386:	8f 5f       	subi	r24, 0xFF	; 255
    1388:	8d 83       	std	Y+5, r24	; 0x05
    138a:	81 30       	cpi	r24, 0x01	; 1
    138c:	e1 f6       	brne	.-72     	; 0x1346 <.L23>
    138e:	1d 82       	std	Y+5, r1	; 0x05
    1390:	e8 81       	ld	r30, Y
    1392:	f9 81       	ldd	r31, Y+1	; 0x01
    1394:	09 95       	icall
    1396:	81 30       	cpi	r24, 0x01	; 1
    1398:	41 f5       	brne	.+80     	; 0x13ea <.L32>
    139a:	f7 01       	movw	r30, r14
    139c:	e2 5c       	subi	r30, 0xC2	; 194
    139e:	fa 4f       	sbci	r31, 0xFA	; 250
    13a0:	80 81       	ld	r24, Z
    13a2:	8e 7f       	andi	r24, 0xFE	; 254
    13a4:	80 83       	st	Z, r24
    13a6:	1c 82       	std	Y+4, r1	; 0x04
    13a8:	ce cf       	rjmp	.-100    	; 0x1346 <.L23>

000013aa <.L35>:
    13aa:	8d 81       	ldd	r24, Y+5	; 0x05
    13ac:	8f 5f       	subi	r24, 0xFF	; 255
    13ae:	8d 83       	std	Y+5, r24	; 0x05
    13b0:	81 30       	cpi	r24, 0x01	; 1
    13b2:	49 f6       	brne	.-110    	; 0x1346 <.L23>
    13b4:	1d 82       	std	Y+5, r1	; 0x05
    13b6:	e8 81       	ld	r30, Y
    13b8:	f9 81       	ldd	r31, Y+1	; 0x01
    13ba:	09 95       	icall
    13bc:	81 11       	cpse	r24, r1
    13be:	15 c0       	rjmp	.+42     	; 0x13ea <.L32>
    13c0:	f7 01       	movw	r30, r14
    13c2:	e2 5c       	subi	r30, 0xC2	; 194
    13c4:	fa 4f       	sbci	r31, 0xFA	; 250
    13c6:	80 81       	ld	r24, Z
    13c8:	81 60       	ori	r24, 0x01	; 1
    13ca:	80 83       	st	Z, r24
    13cc:	b9 cf       	rjmp	.-142    	; 0x1340 <.L31>

000013ce <.L33>:
    13ce:	df 91       	pop	r29
    13d0:	cf 91       	pop	r28
    13d2:	1f 91       	pop	r17
    13d4:	0f 91       	pop	r16
    13d6:	ff 90       	pop	r15
    13d8:	ef 90       	pop	r14
    13da:	08 95       	ret

000013dc <.L36>:
    13dc:	e8 81       	ld	r30, Y
    13de:	f9 81       	ldd	r31, Y+1	; 0x01
    13e0:	09 95       	icall
    13e2:	81 30       	cpi	r24, 0x01	; 1
    13e4:	09 f0       	breq	.+2      	; 0x13e8 <L0^A+0x2>

000013e6 <L0^A>:
    13e6:	af cf       	rjmp	.-162    	; 0x1346 <.L23>
    13e8:	ab cf       	rjmp	.-170    	; 0x1340 <.L31>

000013ea <.L32>:
    13ea:	8c 81       	ldd	r24, Y+4	; 0x04
    13ec:	81 50       	subi	r24, 0x01	; 1
    13ee:	8c 83       	std	Y+4, r24	; 0x04
    13f0:	aa cf       	rjmp	.-172    	; 0x1346 <.L23>

000013f2 <ikb_inReptt>:
    13f2:	90 e1       	ldi	r25, 0x10	; 16
    13f4:	89 02       	muls	r24, r25
    13f6:	f0 01       	movw	r30, r0
    13f8:	11 24       	eor	r1, r1
    13fa:	e1 5d       	subi	r30, 0xD1	; 209
    13fc:	fa 4f       	sbci	r31, 0xFA	; 250
    13fe:	96 81       	ldd	r25, Z+6	; 0x06
    1400:	81 e0       	ldi	r24, 0x01	; 1
    1402:	98 30       	cpi	r25, 0x08	; 8
    1404:	09 f0       	breq	.+2      	; 0x1408 <.L39>
    1406:	08 95       	ret

00001408 <.L39>:
    1408:	80 e0       	ldi	r24, 0x00	; 0
    140a:	08 95       	ret

0000140c <ikey_parsing>:
    140c:	ff 92       	push	r15
    140e:	0f 93       	push	r16
    1410:	1f 93       	push	r17
    1412:	cf 93       	push	r28
    1414:	df 93       	push	r29
    1416:	20 e0       	ldi	r18, 0x00	; 0
    1418:	30 e0       	ldi	r19, 0x00	; 0
    141a:	79 e0       	ldi	r23, 0x09	; 9
    141c:	fa e0       	ldi	r31, 0x0A	; 10
    141e:	ff 2e       	mov	r15, r31
    1420:	63 e0       	ldi	r22, 0x03	; 3
    1422:	42 e0       	ldi	r20, 0x02	; 2
    1424:	5b e0       	ldi	r21, 0x0B	; 11
    1426:	52 c0       	rjmp	.+164    	; 0x14cc <.L75>

00001428 <.L53>:
    1428:	fc 01       	movw	r30, r24
    142a:	e1 5d       	subi	r30, 0xD1	; 209
    142c:	fa 4f       	sbci	r31, 0xFA	; 250
    142e:	b6 81       	ldd	r27, Z+6	; 0x06
    1430:	b9 30       	cpi	r27, 0x09	; 9
    1432:	09 f4       	brne	.+2      	; 0x1436 <.L55>

00001434 <L0^A>:
    1434:	9a c0       	rjmp	.+308    	; 0x156a <.L92>

00001436 <.L55>:
    1436:	fc 01       	movw	r30, r24
    1438:	e1 5d       	subi	r30, 0xD1	; 209
    143a:	fa 4f       	sbci	r31, 0xFA	; 250
    143c:	b6 81       	ldd	r27, Z+6	; 0x06
    143e:	ba 30       	cpi	r27, 0x0A	; 10
    1440:	09 f4       	brne	.+2      	; 0x1444 <.L57>

00001442 <L0^A>:
    1442:	a4 c0       	rjmp	.+328    	; 0x158c <.L93>

00001444 <.L57>:
    1444:	fc 01       	movw	r30, r24
    1446:	e1 5d       	subi	r30, 0xD1	; 209
    1448:	fa 4f       	sbci	r31, 0xFA	; 250
    144a:	b6 81       	ldd	r27, Z+6	; 0x06
    144c:	b6 30       	cpi	r27, 0x06	; 6
    144e:	09 f4       	brne	.+2      	; 0x1452 <.L59>

00001450 <L0^A>:
    1450:	b2 c0       	rjmp	.+356    	; 0x15b6 <.L94>

00001452 <.L59>:
    1452:	fc 01       	movw	r30, r24
    1454:	e1 5d       	subi	r30, 0xD1	; 209
    1456:	fa 4f       	sbci	r31, 0xFA	; 250
    1458:	b6 81       	ldd	r27, Z+6	; 0x06
    145a:	b7 30       	cpi	r27, 0x07	; 7
    145c:	39 f4       	brne	.+14     	; 0x146c <.L60>
    145e:	ec 01       	movw	r28, r24
    1460:	c2 5c       	subi	r28, 0xC2	; 194
    1462:	da 4f       	sbci	r29, 0xFA	; 250
    1464:	b8 81       	ld	r27, Y
    1466:	b2 60       	ori	r27, 0x02	; 2
    1468:	b8 83       	st	Y, r27
    146a:	46 83       	std	Z+6, r20	; 0x06

0000146c <.L60>:
    146c:	fc 01       	movw	r30, r24
    146e:	e1 5d       	subi	r30, 0xD1	; 209
    1470:	fa 4f       	sbci	r31, 0xFA	; 250
    1472:	b6 81       	ldd	r27, Z+6	; 0x06
    1474:	b4 30       	cpi	r27, 0x04	; 4
    1476:	09 f4       	brne	.+2      	; 0x147a <.L62>

00001478 <L0^A>:
    1478:	18 c1       	rjmp	.+560    	; 0x16aa <.L95>

0000147a <.L62>:
    147a:	fc 01       	movw	r30, r24
    147c:	e1 5d       	subi	r30, 0xD1	; 209
    147e:	fa 4f       	sbci	r31, 0xFA	; 250
    1480:	b6 81       	ldd	r27, Z+6	; 0x06
    1482:	b5 30       	cpi	r27, 0x05	; 5
    1484:	09 f4       	brne	.+2      	; 0x1488 <.L67>

00001486 <L0^A>:
    1486:	e1 c0       	rjmp	.+450    	; 0x164a <.L96>

00001488 <.L67>:
    1488:	fc 01       	movw	r30, r24
    148a:	e1 5d       	subi	r30, 0xD1	; 209
    148c:	fa 4f       	sbci	r31, 0xFA	; 250
    148e:	b6 81       	ldd	r27, Z+6	; 0x06
    1490:	b1 30       	cpi	r27, 0x01	; 1
    1492:	09 f4       	brne	.+2      	; 0x1496 <.L70>

00001494 <L0^A>:
    1494:	d2 c0       	rjmp	.+420    	; 0x163a <.L97>

00001496 <.L70>:
    1496:	fc 01       	movw	r30, r24
    1498:	e1 5d       	subi	r30, 0xD1	; 209
    149a:	fa 4f       	sbci	r31, 0xFA	; 250
    149c:	b6 81       	ldd	r27, Z+6	; 0x06
    149e:	b2 30       	cpi	r27, 0x02	; 2
    14a0:	09 f4       	brne	.+2      	; 0x14a4 <.L71>

000014a2 <L0^A>:
    14a2:	c0 c0       	rjmp	.+384    	; 0x1624 <.L98>

000014a4 <.L71>:
    14a4:	fc 01       	movw	r30, r24
    14a6:	e1 5d       	subi	r30, 0xD1	; 209
    14a8:	fa 4f       	sbci	r31, 0xFA	; 250
    14aa:	b6 81       	ldd	r27, Z+6	; 0x06
    14ac:	b3 30       	cpi	r27, 0x03	; 3
    14ae:	09 f4       	brne	.+2      	; 0x14b2 <.L72>

000014b0 <L0^A>:
    14b0:	b1 c0       	rjmp	.+354    	; 0x1614 <.L99>

000014b2 <.L72>:
    14b2:	fc 01       	movw	r30, r24
    14b4:	e1 5d       	subi	r30, 0xD1	; 209
    14b6:	fa 4f       	sbci	r31, 0xFA	; 250
    14b8:	b6 81       	ldd	r27, Z+6	; 0x06
    14ba:	bb 30       	cpi	r27, 0x0B	; 11
    14bc:	09 f4       	brne	.+2      	; 0x14c0 <L0^A+0x2>

000014be <L0^A>:
    14be:	86 c0       	rjmp	.+268    	; 0x15cc <.L100>
    14c0:	2f 5f       	subi	r18, 0xFF	; 255
    14c2:	3f 4f       	sbci	r19, 0xFF	; 255
    14c4:	27 30       	cpi	r18, 0x07	; 7
    14c6:	31 05       	cpc	r19, r1
    14c8:	09 f4       	brne	.+2      	; 0x14cc <.L75>

000014ca <L0^A>:
    14ca:	9e c0       	rjmp	.+316    	; 0x1608 <.L101>

000014cc <.L75>:
    14cc:	c9 01       	movw	r24, r18
    14ce:	82 95       	swap	r24
    14d0:	92 95       	swap	r25
    14d2:	90 7f       	andi	r25, 0xF0	; 240
    14d4:	98 27       	eor	r25, r24
    14d6:	80 7f       	andi	r24, 0xF0	; 240
    14d8:	98 27       	eor	r25, r24
    14da:	fc 01       	movw	r30, r24
    14dc:	e1 5d       	subi	r30, 0xD1	; 209
    14de:	fa 4f       	sbci	r31, 0xFA	; 250
    14e0:	b6 81       	ldd	r27, Z+6	; 0x06
    14e2:	b1 11       	cpse	r27, r1
    14e4:	13 c0       	rjmp	.+38     	; 0x150c <.L42>
    14e6:	b6 85       	ldd	r27, Z+14	; 0x0e
    14e8:	bb 23       	and	r27, r27
    14ea:	41 f0       	breq	.+16     	; 0x14fc <.L43>
    14ec:	e6 85       	ldd	r30, Z+14	; 0x0e
    14ee:	f0 e0       	ldi	r31, 0x00	; 0
    14f0:	e8 5d       	subi	r30, 0xD8	; 216
    14f2:	fa 4f       	sbci	r31, 0xFA	; 250
    14f4:	e0 81       	ld	r30, Z
    14f6:	e1 30       	cpi	r30, 0x01	; 1
    14f8:	09 f4       	brne	.+2      	; 0x14fc <.L43>

000014fa <L0^A>:
    14fa:	1f c1       	rjmp	.+574    	; 0x173a <.L102>

000014fc <.L43>:
    14fc:	ec 01       	movw	r28, r24
    14fe:	c2 5c       	subi	r28, 0xC2	; 194
    1500:	da 4f       	sbci	r29, 0xFA	; 250
    1502:	e8 81       	ld	r30, Y
    1504:	e1 70       	andi	r30, 0x01	; 1
    1506:	e1 30       	cpi	r30, 0x01	; 1
    1508:	09 f4       	brne	.+2      	; 0x150c <.L42>

0000150a <L0^A>:
    150a:	05 c1       	rjmp	.+522    	; 0x1716 <.L103>

0000150c <.L42>:
    150c:	fc 01       	movw	r30, r24
    150e:	e1 5d       	subi	r30, 0xD1	; 209
    1510:	fa 4f       	sbci	r31, 0xFA	; 250
    1512:	b6 81       	ldd	r27, Z+6	; 0x06
    1514:	b8 30       	cpi	r27, 0x08	; 8
    1516:	68 f0       	brcs	.+26     	; 0x1532 <.L51>
    1518:	b6 81       	ldd	r27, Z+6	; 0x06
    151a:	bb 30       	cpi	r27, 0x0B	; 11
    151c:	50 f4       	brcc	.+20     	; 0x1532 <.L51>
    151e:	ec 01       	movw	r28, r24
    1520:	c2 5c       	subi	r28, 0xC2	; 194
    1522:	da 4f       	sbci	r29, 0xFA	; 250
    1524:	b8 81       	ld	r27, Y
    1526:	b0 fd       	sbrc	r27, 0
    1528:	04 c0       	rjmp	.+8      	; 0x1532 <.L51>
    152a:	10 86       	std	Z+8, r1	; 0x08
    152c:	17 82       	std	Z+7, r1	; 0x07
    152e:	b3 e0       	ldi	r27, 0x03	; 3
    1530:	b6 83       	std	Z+6, r27	; 0x06

00001532 <.L51>:
    1532:	fc 01       	movw	r30, r24
    1534:	e1 5d       	subi	r30, 0xD1	; 209
    1536:	fa 4f       	sbci	r31, 0xFA	; 250
    1538:	b6 81       	ldd	r27, Z+6	; 0x06
    153a:	b8 30       	cpi	r27, 0x08	; 8
    153c:	09 f0       	breq	.+2      	; 0x1540 <L0^A+0x2>

0000153e <L0^A>:
    153e:	74 cf       	rjmp	.-280    	; 0x1428 <.L53>
    1540:	c7 81       	ldd	r28, Z+7	; 0x07
    1542:	d0 85       	ldd	r29, Z+8	; 0x08
    1544:	21 96       	adiw	r28, 0x01	; 1
    1546:	d0 87       	std	Z+8, r29	; 0x08
    1548:	c7 83       	std	Z+7, r28	; 0x07
    154a:	02 85       	ldd	r16, Z+10	; 0x0a
    154c:	13 85       	ldd	r17, Z+11	; 0x0b
    154e:	c0 17       	cp	r28, r16
    1550:	d1 07       	cpc	r29, r17
    1552:	08 f4       	brcc	.+2      	; 0x1556 <L0^A+0x2>

00001554 <L0^A>:
    1554:	69 cf       	rjmp	.-302    	; 0x1428 <.L53>
    1556:	10 86       	std	Z+8, r1	; 0x08
    1558:	17 82       	std	Z+7, r1	; 0x07
    155a:	76 83       	std	Z+6, r23	; 0x06
    155c:	fc 01       	movw	r30, r24
    155e:	e1 5d       	subi	r30, 0xD1	; 209
    1560:	fa 4f       	sbci	r31, 0xFA	; 250
    1562:	b6 81       	ldd	r27, Z+6	; 0x06
    1564:	b9 30       	cpi	r27, 0x09	; 9
    1566:	09 f0       	breq	.+2      	; 0x156a <.L92>

00001568 <L0^A>:
    1568:	66 cf       	rjmp	.-308    	; 0x1436 <.L55>

0000156a <.L92>:
    156a:	ec 01       	movw	r28, r24
    156c:	c2 5c       	subi	r28, 0xC2	; 194
    156e:	da 4f       	sbci	r29, 0xFA	; 250
    1570:	b8 81       	ld	r27, Y
    1572:	b1 fd       	sbrc	r27, 1
    1574:	60 cf       	rjmp	.-320    	; 0x1436 <.L55>
    1576:	b8 81       	ld	r27, Y
    1578:	b2 60       	ori	r27, 0x02	; 2
    157a:	b8 83       	st	Y, r27
    157c:	f6 82       	std	Z+6, r15	; 0x06
    157e:	fc 01       	movw	r30, r24
    1580:	e1 5d       	subi	r30, 0xD1	; 209
    1582:	fa 4f       	sbci	r31, 0xFA	; 250
    1584:	b6 81       	ldd	r27, Z+6	; 0x06
    1586:	ba 30       	cpi	r27, 0x0A	; 10
    1588:	09 f0       	breq	.+2      	; 0x158c <.L93>

0000158a <L0^A>:
    158a:	5c cf       	rjmp	.-328    	; 0x1444 <.L57>

0000158c <.L93>:
    158c:	c7 81       	ldd	r28, Z+7	; 0x07
    158e:	d0 85       	ldd	r29, Z+8	; 0x08
    1590:	21 96       	adiw	r28, 0x01	; 1
    1592:	d0 87       	std	Z+8, r29	; 0x08
    1594:	c7 83       	std	Z+7, r28	; 0x07
    1596:	04 85       	ldd	r16, Z+12	; 0x0c
    1598:	15 85       	ldd	r17, Z+13	; 0x0d
    159a:	c0 17       	cp	r28, r16
    159c:	d1 07       	cpc	r29, r17
    159e:	08 f4       	brcc	.+2      	; 0x15a2 <L0^A+0x2>

000015a0 <L0^A>:
    15a0:	51 cf       	rjmp	.-350    	; 0x1444 <.L57>
    15a2:	10 86       	std	Z+8, r1	; 0x08
    15a4:	17 82       	std	Z+7, r1	; 0x07
    15a6:	76 83       	std	Z+6, r23	; 0x06
    15a8:	fc 01       	movw	r30, r24
    15aa:	e1 5d       	subi	r30, 0xD1	; 209
    15ac:	fa 4f       	sbci	r31, 0xFA	; 250
    15ae:	b6 81       	ldd	r27, Z+6	; 0x06
    15b0:	b6 30       	cpi	r27, 0x06	; 6
    15b2:	09 f0       	breq	.+2      	; 0x15b6 <.L94>

000015b4 <L0^A>:
    15b4:	4e cf       	rjmp	.-356    	; 0x1452 <.L59>

000015b6 <.L94>:
    15b6:	ec 01       	movw	r28, r24
    15b8:	c2 5c       	subi	r28, 0xC2	; 194
    15ba:	da 4f       	sbci	r29, 0xFA	; 250
    15bc:	b8 81       	ld	r27, Y
    15be:	b0 fd       	sbrc	r27, 0
    15c0:	48 cf       	rjmp	.-368    	; 0x1452 <.L59>
    15c2:	b8 81       	ld	r27, Y
    15c4:	b2 60       	ori	r27, 0x02	; 2
    15c6:	b8 83       	st	Y, r27
    15c8:	66 83       	std	Z+6, r22	; 0x06
    15ca:	43 cf       	rjmp	.-378    	; 0x1452 <.L59>

000015cc <.L100>:
    15cc:	b6 85       	ldd	r27, Z+14	; 0x0e
    15ce:	bb 23       	and	r27, r27
    15d0:	59 f0       	breq	.+22     	; 0x15e8 <.L74>
    15d2:	e6 85       	ldd	r30, Z+14	; 0x0e
    15d4:	f0 e0       	ldi	r31, 0x00	; 0
    15d6:	e8 5d       	subi	r30, 0xD8	; 216
    15d8:	fa 4f       	sbci	r31, 0xFA	; 250
    15da:	10 82       	st	Z, r1
    15dc:	fc 01       	movw	r30, r24
    15de:	e2 5c       	subi	r30, 0xC2	; 194
    15e0:	fa 4f       	sbci	r31, 0xFA	; 250
    15e2:	b0 81       	ld	r27, Z
    15e4:	b7 7f       	andi	r27, 0xF7	; 247
    15e6:	b0 83       	st	Z, r27

000015e8 <.L74>:
    15e8:	fc 01       	movw	r30, r24
    15ea:	e1 5d       	subi	r30, 0xD1	; 209
    15ec:	fa 4f       	sbci	r31, 0xFA	; 250
    15ee:	16 82       	std	Z+6, r1	; 0x06
    15f0:	fc 01       	movw	r30, r24
    15f2:	e2 5c       	subi	r30, 0xC2	; 194
    15f4:	fa 4f       	sbci	r31, 0xFA	; 250
    15f6:	80 81       	ld	r24, Z
    15f8:	8f 7e       	andi	r24, 0xEF	; 239
    15fa:	80 83       	st	Z, r24
    15fc:	2f 5f       	subi	r18, 0xFF	; 255
    15fe:	3f 4f       	sbci	r19, 0xFF	; 255
    1600:	27 30       	cpi	r18, 0x07	; 7
    1602:	31 05       	cpc	r19, r1
    1604:	09 f0       	breq	.+2      	; 0x1608 <.L101>

00001606 <L0^A>:
    1606:	62 cf       	rjmp	.-316    	; 0x14cc <.L75>

00001608 <.L101>:
    1608:	df 91       	pop	r29
    160a:	cf 91       	pop	r28
    160c:	1f 91       	pop	r17
    160e:	0f 91       	pop	r16
    1610:	ff 90       	pop	r15
    1612:	08 95       	ret

00001614 <.L99>:
    1614:	ec 01       	movw	r28, r24
    1616:	c2 5c       	subi	r28, 0xC2	; 194
    1618:	da 4f       	sbci	r29, 0xFA	; 250
    161a:	b8 81       	ld	r27, Y
    161c:	b1 fd       	sbrc	r27, 1
    161e:	49 cf       	rjmp	.-366    	; 0x14b2 <.L72>
    1620:	56 83       	std	Z+6, r21	; 0x06
    1622:	47 cf       	rjmp	.-370    	; 0x14b2 <.L72>

00001624 <.L98>:
    1624:	ec 01       	movw	r28, r24
    1626:	c2 5c       	subi	r28, 0xC2	; 194
    1628:	da 4f       	sbci	r29, 0xFA	; 250
    162a:	b8 81       	ld	r27, Y
    162c:	b0 fd       	sbrc	r27, 0
    162e:	3a cf       	rjmp	.-396    	; 0x14a4 <.L71>
    1630:	b8 81       	ld	r27, Y
    1632:	bd 7f       	andi	r27, 0xFD	; 253
    1634:	b8 83       	st	Y, r27
    1636:	56 83       	std	Z+6, r21	; 0x06
    1638:	35 cf       	rjmp	.-406    	; 0x14a4 <.L71>

0000163a <.L97>:
    163a:	ec 01       	movw	r28, r24
    163c:	c2 5c       	subi	r28, 0xC2	; 194
    163e:	da 4f       	sbci	r29, 0xFA	; 250
    1640:	b8 81       	ld	r27, Y
    1642:	b0 fd       	sbrc	r27, 0
    1644:	28 cf       	rjmp	.-432    	; 0x1496 <.L70>
    1646:	66 83       	std	Z+6, r22	; 0x06
    1648:	26 cf       	rjmp	.-436    	; 0x1496 <.L70>

0000164a <.L96>:
    164a:	c7 81       	ldd	r28, Z+7	; 0x07
    164c:	d0 85       	ldd	r29, Z+8	; 0x08
    164e:	21 96       	adiw	r28, 0x01	; 1
    1650:	d0 87       	std	Z+8, r29	; 0x08
    1652:	c7 83       	std	Z+7, r28	; 0x07
    1654:	ec 01       	movw	r28, r24
    1656:	c2 5c       	subi	r28, 0xC2	; 194
    1658:	da 4f       	sbci	r29, 0xFA	; 250
    165a:	b8 81       	ld	r27, Y
    165c:	b0 fd       	sbrc	r27, 0
    165e:	0f c0       	rjmp	.+30     	; 0x167e <.L68>
    1660:	07 81       	ldd	r16, Z+7	; 0x07
    1662:	10 85       	ldd	r17, Z+8	; 0x08
    1664:	03 33       	cpi	r16, 0x33	; 51
    1666:	11 05       	cpc	r17, r1
    1668:	50 f4       	brcc	.+20     	; 0x167e <.L68>
    166a:	10 86       	std	Z+8, r1	; 0x08
    166c:	17 82       	std	Z+7, r1	; 0x07
    166e:	b8 81       	ld	r27, Y
    1670:	b2 60       	ori	r27, 0x02	; 2
    1672:	b8 83       	st	Y, r27
    1674:	b8 81       	ld	r27, Y
    1676:	bb 7f       	andi	r27, 0xFB	; 251
    1678:	b8 83       	st	Y, r27
    167a:	b3 e0       	ldi	r27, 0x03	; 3
    167c:	b6 83       	std	Z+6, r27	; 0x06

0000167e <.L68>:
    167e:	fc 01       	movw	r30, r24
    1680:	e1 5d       	subi	r30, 0xD1	; 209
    1682:	fa 4f       	sbci	r31, 0xFA	; 250
    1684:	c7 81       	ldd	r28, Z+7	; 0x07
    1686:	d0 85       	ldd	r29, Z+8	; 0x08
    1688:	cb 34       	cpi	r28, 0x4B	; 75
    168a:	d1 05       	cpc	r29, r1
    168c:	08 f4       	brcc	.+2      	; 0x1690 <L0^A+0x2>

0000168e <L0^A>:
    168e:	fc ce       	rjmp	.-520    	; 0x1488 <.L67>
    1690:	10 86       	std	Z+8, r1	; 0x08
    1692:	17 82       	std	Z+7, r1	; 0x07
    1694:	ec 01       	movw	r28, r24
    1696:	c2 5c       	subi	r28, 0xC2	; 194
    1698:	da 4f       	sbci	r29, 0xFA	; 250
    169a:	b8 81       	ld	r27, Y
    169c:	b2 60       	ori	r27, 0x02	; 2
    169e:	b8 83       	st	Y, r27
    16a0:	b8 81       	ld	r27, Y
    16a2:	b4 60       	ori	r27, 0x04	; 4
    16a4:	b8 83       	st	Y, r27
    16a6:	46 83       	std	Z+6, r20	; 0x06
    16a8:	ef ce       	rjmp	.-546    	; 0x1488 <.L67>

000016aa <.L95>:
    16aa:	c7 81       	ldd	r28, Z+7	; 0x07
    16ac:	d0 85       	ldd	r29, Z+8	; 0x08
    16ae:	21 96       	adiw	r28, 0x01	; 1
    16b0:	d0 87       	std	Z+8, r29	; 0x08
    16b2:	c7 83       	std	Z+7, r28	; 0x07
    16b4:	ec 01       	movw	r28, r24
    16b6:	c2 5c       	subi	r28, 0xC2	; 194
    16b8:	da 4f       	sbci	r29, 0xFA	; 250
    16ba:	b8 81       	ld	r27, Y
    16bc:	b0 fd       	sbrc	r27, 0
    16be:	0f c0       	rjmp	.+30     	; 0x16de <.L63>
    16c0:	07 81       	ldd	r16, Z+7	; 0x07
    16c2:	10 85       	ldd	r17, Z+8	; 0x08
    16c4:	03 33       	cpi	r16, 0x33	; 51
    16c6:	11 05       	cpc	r17, r1
    16c8:	50 f4       	brcc	.+20     	; 0x16de <.L63>
    16ca:	10 86       	std	Z+8, r1	; 0x08
    16cc:	17 82       	std	Z+7, r1	; 0x07
    16ce:	b8 81       	ld	r27, Y
    16d0:	b2 60       	ori	r27, 0x02	; 2
    16d2:	b8 83       	st	Y, r27
    16d4:	b8 81       	ld	r27, Y
    16d6:	bb 7f       	andi	r27, 0xFB	; 251
    16d8:	b8 83       	st	Y, r27
    16da:	b3 e0       	ldi	r27, 0x03	; 3
    16dc:	b6 83       	std	Z+6, r27	; 0x06

000016de <.L63>:
    16de:	fc 01       	movw	r30, r24
    16e0:	e1 5d       	subi	r30, 0xD1	; 209
    16e2:	fa 4f       	sbci	r31, 0xFA	; 250
    16e4:	c7 81       	ldd	r28, Z+7	; 0x07
    16e6:	d0 85       	ldd	r29, Z+8	; 0x08
    16e8:	e3 97       	sbiw	r28, 0x33	; 51
    16ea:	08 f4       	brcc	.+2      	; 0x16ee <L0^A+0x2>

000016ec <L0^A>:
    16ec:	c6 ce       	rjmp	.-628    	; 0x147a <.L62>
    16ee:	10 86       	std	Z+8, r1	; 0x08
    16f0:	17 82       	std	Z+7, r1	; 0x07
    16f2:	ec 01       	movw	r28, r24
    16f4:	c2 5c       	subi	r28, 0xC2	; 194
    16f6:	da 4f       	sbci	r29, 0xFA	; 250
    16f8:	b8 81       	ld	r27, Y
    16fa:	b2 60       	ori	r27, 0x02	; 2
    16fc:	b8 83       	st	Y, r27
    16fe:	b8 81       	ld	r27, Y
    1700:	b4 60       	ori	r27, 0x04	; 4
    1702:	b8 83       	st	Y, r27
    1704:	ec 01       	movw	r28, r24
    1706:	c8 5c       	subi	r28, 0xC8	; 200
    1708:	da 4f       	sbci	r29, 0xFA	; 250
    170a:	b8 81       	ld	r27, Y
    170c:	b1 fd       	sbrc	r27, 1
    170e:	1c c0       	rjmp	.+56     	; 0x1748 <.L65>
    1710:	b1 e0       	ldi	r27, 0x01	; 1
    1712:	b6 83       	std	Z+6, r27	; 0x06
    1714:	b2 ce       	rjmp	.-668    	; 0x147a <.L62>

00001716 <.L103>:
    1716:	dc 01       	movw	r26, r24
    1718:	a8 5c       	subi	r26, 0xC8	; 200
    171a:	ba 4f       	sbci	r27, 0xFA	; 250
    171c:	fc 91       	ld	r31, X
    171e:	f0 ff       	sbrs	r31, 0
    1720:	16 c0       	rjmp	.+44     	; 0x174e <.L45>
    1722:	f8 81       	ld	r31, Y
    1724:	f2 60       	ori	r31, 0x02	; 2
    1726:	f8 83       	st	Y, r31
    1728:	fc 91       	ld	r31, X
    172a:	f1 ff       	sbrs	r31, 1
    172c:	3b c0       	rjmp	.+118    	; 0x17a4 <.L46>
    172e:	b8 e0       	ldi	r27, 0x08	; 8
    1730:	fc 01       	movw	r30, r24
    1732:	e1 5d       	subi	r30, 0xD1	; 209
    1734:	fa 4f       	sbci	r31, 0xFA	; 250
    1736:	b6 83       	std	Z+6, r27	; 0x06
    1738:	12 c0       	rjmp	.+36     	; 0x175e <.L47>

0000173a <.L102>:
    173a:	fc 01       	movw	r30, r24
    173c:	e2 5c       	subi	r30, 0xC2	; 194
    173e:	fa 4f       	sbci	r31, 0xFA	; 250
    1740:	e0 81       	ld	r30, Z
    1742:	e3 fd       	sbrc	r30, 3
    1744:	db ce       	rjmp	.-586    	; 0x14fc <.L43>
    1746:	e2 ce       	rjmp	.-572    	; 0x150c <.L42>

00001748 <.L65>:
    1748:	ba e0       	ldi	r27, 0x0A	; 10
    174a:	b6 83       	std	Z+6, r27	; 0x06
    174c:	96 ce       	rjmp	.-724    	; 0x147a <.L62>

0000174e <.L45>:
    174e:	ec 91       	ld	r30, X
    1750:	e2 ff       	sbrs	r30, 2
    1752:	1c c0       	rjmp	.+56     	; 0x178c <.L48>
    1754:	b6 e0       	ldi	r27, 0x06	; 6
    1756:	fc 01       	movw	r30, r24
    1758:	e1 5d       	subi	r30, 0xD1	; 209
    175a:	fa 4f       	sbci	r31, 0xFA	; 250
    175c:	b6 83       	std	Z+6, r27	; 0x06

0000175e <.L47>:
    175e:	fc 01       	movw	r30, r24
    1760:	e2 5c       	subi	r30, 0xC2	; 194
    1762:	fa 4f       	sbci	r31, 0xFA	; 250
    1764:	b0 81       	ld	r27, Z
    1766:	b0 61       	ori	r27, 0x10	; 16
    1768:	b0 83       	st	Z, r27
    176a:	ec 01       	movw	r28, r24
    176c:	c1 5d       	subi	r28, 0xD1	; 209
    176e:	da 4f       	sbci	r29, 0xFA	; 250
    1770:	be 85       	ldd	r27, Y+14	; 0x0e
    1772:	bb 23       	and	r27, r27
    1774:	09 f4       	brne	.+2      	; 0x1778 <L0^A+0x2>

00001776 <L0^A>:
    1776:	ca ce       	rjmp	.-620    	; 0x150c <.L42>
    1778:	ce 85       	ldd	r28, Y+14	; 0x0e
    177a:	d0 e0       	ldi	r29, 0x00	; 0
    177c:	c8 5d       	subi	r28, 0xD8	; 216
    177e:	da 4f       	sbci	r29, 0xFA	; 250
    1780:	b1 e0       	ldi	r27, 0x01	; 1
    1782:	b8 83       	st	Y, r27
    1784:	b0 81       	ld	r27, Z
    1786:	b8 60       	ori	r27, 0x08	; 8
    1788:	b0 83       	st	Z, r27
    178a:	c0 ce       	rjmp	.-640    	; 0x150c <.L42>

0000178c <.L48>:
    178c:	ec 91       	ld	r30, X
    178e:	e3 fd       	sbrc	r30, 3
    1790:	0e c0       	rjmp	.+28     	; 0x17ae <.L104>
    1792:	ec 91       	ld	r30, X
    1794:	e4 ff       	sbrs	r30, 4
    1796:	11 c0       	rjmp	.+34     	; 0x17ba <.L50>
    1798:	b4 e0       	ldi	r27, 0x04	; 4
    179a:	fc 01       	movw	r30, r24
    179c:	e1 5d       	subi	r30, 0xD1	; 209
    179e:	fa 4f       	sbci	r31, 0xFA	; 250
    17a0:	b6 83       	std	Z+6, r27	; 0x06
    17a2:	dd cf       	rjmp	.-70     	; 0x175e <.L47>

000017a4 <.L46>:
    17a4:	ec 01       	movw	r28, r24
    17a6:	c1 5d       	subi	r28, 0xD1	; 209
    17a8:	da 4f       	sbci	r29, 0xFA	; 250
    17aa:	ee 83       	std	Y+6, r30	; 0x06
    17ac:	d8 cf       	rjmp	.-80     	; 0x175e <.L47>

000017ae <.L104>:
    17ae:	b7 e0       	ldi	r27, 0x07	; 7
    17b0:	fc 01       	movw	r30, r24
    17b2:	e1 5d       	subi	r30, 0xD1	; 209
    17b4:	fa 4f       	sbci	r31, 0xFA	; 250
    17b6:	b6 83       	std	Z+6, r27	; 0x06
    17b8:	d2 cf       	rjmp	.-92     	; 0x175e <.L47>

000017ba <.L50>:
    17ba:	ec 91       	ld	r30, X
    17bc:	e5 ff       	sbrs	r30, 5
    17be:	cf cf       	rjmp	.-98     	; 0x175e <.L47>
    17c0:	b5 e0       	ldi	r27, 0x05	; 5
    17c2:	fc 01       	movw	r30, r24
    17c4:	e1 5d       	subi	r30, 0xD1	; 209
    17c6:	fa 4f       	sbci	r31, 0xFA	; 250
    17c8:	b6 83       	std	Z+6, r27	; 0x06
    17ca:	e8 81       	ld	r30, Y
    17cc:	e0 62       	ori	r30, 0x20	; 32
    17ce:	e8 83       	st	Y, r30
    17d0:	c6 cf       	rjmp	.-116    	; 0x175e <.L47>

000017d2 <ikb_job>:
    17d2:	0e 94 92 09 	call	0x1324	; 0x1324 <ikey_scan>
    17d6:	0c 94 06 0a 	jmp	0x140c	; 0x140c <ikey_parsing>

000017da <ikey_is_all_hw_released>:
    17da:	80 91 3e 05 	lds	r24, 0x053E	; 0x80053e <key+0xf>
    17de:	80 fd       	sbrc	r24, 0
    17e0:	19 c0       	rjmp	.+50     	; 0x1814 <.L113>
    17e2:	80 91 4e 05 	lds	r24, 0x054E	; 0x80054e <key+0x1f>
    17e6:	80 fd       	sbrc	r24, 0
    17e8:	15 c0       	rjmp	.+42     	; 0x1814 <.L113>
    17ea:	80 91 5e 05 	lds	r24, 0x055E	; 0x80055e <key+0x2f>
    17ee:	80 fd       	sbrc	r24, 0
    17f0:	11 c0       	rjmp	.+34     	; 0x1814 <.L113>
    17f2:	80 91 6e 05 	lds	r24, 0x056E	; 0x80056e <key+0x3f>
    17f6:	80 fd       	sbrc	r24, 0
    17f8:	0d c0       	rjmp	.+26     	; 0x1814 <.L113>
    17fa:	80 91 7e 05 	lds	r24, 0x057E	; 0x80057e <key+0x4f>
    17fe:	80 fd       	sbrc	r24, 0
    1800:	09 c0       	rjmp	.+18     	; 0x1814 <.L113>
    1802:	80 91 8e 05 	lds	r24, 0x058E	; 0x80058e <key+0x5f>
    1806:	80 fd       	sbrc	r24, 0
    1808:	05 c0       	rjmp	.+10     	; 0x1814 <.L113>
    180a:	80 91 9e 05 	lds	r24, 0x059E	; 0x80059e <key+0x6f>
    180e:	80 95       	com	r24
    1810:	81 70       	andi	r24, 0x01	; 1
    1812:	08 95       	ret

00001814 <.L113>:
    1814:	80 e0       	ldi	r24, 0x00	; 0
    1816:	08 95       	ret

00001818 <ikey_clear_all_flag>:
    1818:	ee e3       	ldi	r30, 0x3E	; 62
    181a:	f5 e0       	ldi	r31, 0x05	; 5
    181c:	80 81       	ld	r24, Z
    181e:	8d 7f       	andi	r24, 0xFD	; 253
    1820:	80 83       	st	Z, r24
    1822:	ee e4       	ldi	r30, 0x4E	; 78
    1824:	f5 e0       	ldi	r31, 0x05	; 5
    1826:	80 81       	ld	r24, Z
    1828:	8d 7f       	andi	r24, 0xFD	; 253
    182a:	80 83       	st	Z, r24
    182c:	ee e5       	ldi	r30, 0x5E	; 94
    182e:	f5 e0       	ldi	r31, 0x05	; 5
    1830:	80 81       	ld	r24, Z
    1832:	8d 7f       	andi	r24, 0xFD	; 253
    1834:	80 83       	st	Z, r24
    1836:	ee e6       	ldi	r30, 0x6E	; 110
    1838:	f5 e0       	ldi	r31, 0x05	; 5
    183a:	80 81       	ld	r24, Z
    183c:	8d 7f       	andi	r24, 0xFD	; 253
    183e:	80 83       	st	Z, r24
    1840:	ee e7       	ldi	r30, 0x7E	; 126
    1842:	f5 e0       	ldi	r31, 0x05	; 5
    1844:	80 81       	ld	r24, Z
    1846:	8d 7f       	andi	r24, 0xFD	; 253
    1848:	80 83       	st	Z, r24
    184a:	ee e8       	ldi	r30, 0x8E	; 142
    184c:	f5 e0       	ldi	r31, 0x05	; 5
    184e:	80 81       	ld	r24, Z
    1850:	8d 7f       	andi	r24, 0xFD	; 253
    1852:	80 83       	st	Z, r24
    1854:	ee e9       	ldi	r30, 0x9E	; 158
    1856:	f5 e0       	ldi	r31, 0x05	; 5
    1858:	80 81       	ld	r24, Z
    185a:	8d 7f       	andi	r24, 0xFD	; 253
    185c:	80 83       	st	Z, r24
    185e:	08 95       	ret

00001860 <ikey_is_all_process_finished>:
    1860:	80 91 3e 05 	lds	r24, 0x053E	; 0x80053e <key+0xf>
    1864:	84 fd       	sbrc	r24, 4
    1866:	1b c0       	rjmp	.+54     	; 0x189e <.L122>
    1868:	80 91 4e 05 	lds	r24, 0x054E	; 0x80054e <key+0x1f>
    186c:	84 fd       	sbrc	r24, 4
    186e:	17 c0       	rjmp	.+46     	; 0x189e <.L122>
    1870:	80 91 5e 05 	lds	r24, 0x055E	; 0x80055e <key+0x2f>
    1874:	84 fd       	sbrc	r24, 4
    1876:	13 c0       	rjmp	.+38     	; 0x189e <.L122>
    1878:	80 91 6e 05 	lds	r24, 0x056E	; 0x80056e <key+0x3f>
    187c:	84 fd       	sbrc	r24, 4
    187e:	0f c0       	rjmp	.+30     	; 0x189e <.L122>
    1880:	80 91 7e 05 	lds	r24, 0x057E	; 0x80057e <key+0x4f>
    1884:	84 fd       	sbrc	r24, 4
    1886:	0b c0       	rjmp	.+22     	; 0x189e <.L122>
    1888:	80 91 8e 05 	lds	r24, 0x058E	; 0x80058e <key+0x5f>
    188c:	84 fd       	sbrc	r24, 4
    188e:	07 c0       	rjmp	.+14     	; 0x189e <.L122>
    1890:	90 91 9e 05 	lds	r25, 0x059E	; 0x80059e <key+0x6f>
    1894:	92 95       	swap	r25
    1896:	91 70       	andi	r25, 0x01	; 1
    1898:	81 e0       	ldi	r24, 0x01	; 1
    189a:	89 1b       	sub	r24, r25
    189c:	08 95       	ret

0000189e <.L122>:
    189e:	80 e0       	ldi	r24, 0x00	; 0
    18a0:	08 95       	ret

000018a2 <groupDig_setStrDig>:
    18a2:	90 93 af 05 	sts	0x05AF, r25	; 0x8005af <groupDig+0x10>
    18a6:	80 93 ae 05 	sts	0x05AE, r24	; 0x8005ae <groupDig+0xf>
    18aa:	08 95       	ret

000018ac <error_job>:
    18ac:	cf 93       	push	r28
    18ae:	df 93       	push	r29
    18b0:	cd b7       	in	r28, 0x3d	; 61
    18b2:	de b7       	in	r29, 0x3e	; 62
    18b4:	2a 97       	sbiw	r28, 0x0a	; 10
    18b6:	0f b6       	in	r0, 0x3f	; 63
    18b8:	f8 94       	cli
    18ba:	de bf       	out	0x3e, r29	; 62
    18bc:	0f be       	out	0x3f, r0	; 63
    18be:	cd bf       	out	0x3d, r28	; 61
    18c0:	90 91 ca 05 	lds	r25, 0x05CA	; 0x8005ca <e+0x5>
    18c4:	80 91 c8 05 	lds	r24, 0x05C8	; 0x8005c8 <e+0x3>
    18c8:	80 fd       	sbrc	r24, 0
    18ca:	2c c0       	rjmp	.+88     	; 0x1924 <.L2>
    18cc:	19 16       	cp	r1, r25
    18ce:	0c f4       	brge	.+2      	; 0x18d2 <L0^A+0x2>

000018d0 <L0^A>:
    18d0:	61 c0       	rjmp	.+194    	; 0x1994 <.L3>
    18d2:	80 91 cc 05 	lds	r24, 0x05CC	; 0x8005cc <e+0x7>
    18d6:	18 16       	cp	r1, r24
    18d8:	0c f4       	brge	.+2      	; 0x18dc <L0^A+0x2>

000018da <L0^A>:
    18da:	5c c0       	rjmp	.+184    	; 0x1994 <.L3>
    18dc:	80 91 ce 05 	lds	r24, 0x05CE	; 0x8005ce <e+0x9>
    18e0:	18 16       	cp	r1, r24
    18e2:	0c f4       	brge	.+2      	; 0x18e6 <.L4>

000018e4 <L0^A>:
    18e4:	57 c0       	rjmp	.+174    	; 0x1994 <.L3>

000018e6 <.L4>:
    18e6:	20 91 c5 05 	lds	r18, 0x05C5	; 0x8005c5 <e>
    18ea:	82 2f       	mov	r24, r18
    18ec:	02 2e       	mov	r0, r18
    18ee:	00 0c       	add	r0, r0
    18f0:	99 0b       	sbc	r25, r25
    18f2:	a2 2f       	mov	r26, r18
    18f4:	aa 0f       	add	r26, r26
    18f6:	bb 0b       	sbc	r27, r27
    18f8:	a7 53       	subi	r26, 0x37	; 55
    18fa:	ba 4f       	sbci	r27, 0xFA	; 250
    18fc:	3c 91       	ld	r19, X
    18fe:	31 11       	cpse	r19, r1
    1900:	34 c0       	rjmp	.+104    	; 0x196a <.L7>
    1902:	88 0f       	add	r24, r24
    1904:	99 1f       	adc	r25, r25
    1906:	fc 01       	movw	r30, r24
    1908:	eb 53       	subi	r30, 0x3B	; 59
    190a:	fa 4f       	sbci	r31, 0xFA	; 250
    190c:	85 81       	ldd	r24, Z+5	; 0x05
    190e:	18 16       	cp	r1, r24
    1910:	0c f4       	brge	.+2      	; 0x1914 <.L23>

00001912 <L0^A>:
    1912:	5a c0       	rjmp	.+180    	; 0x19c8 <.L25>

00001914 <.L23>:
    1914:	2f 5f       	subi	r18, 0xFF	; 255
    1916:	20 93 c5 05 	sts	0x05C5, r18	; 0x8005c5 <e>
    191a:	23 30       	cpi	r18, 0x03	; 3
    191c:	4c f1       	brlt	.+82     	; 0x1970 <.L12>
    191e:	10 92 c5 05 	sts	0x05C5, r1	; 0x8005c5 <e>
    1922:	26 c0       	rjmp	.+76     	; 0x1970 <.L12>

00001924 <.L2>:
    1924:	21 e0       	ldi	r18, 0x01	; 1
    1926:	91 11       	cpse	r25, r1
    1928:	2f c0       	rjmp	.+94     	; 0x1988 <.L26>
    192a:	80 91 cc 05 	lds	r24, 0x05CC	; 0x8005cc <e+0x7>
    192e:	81 11       	cpse	r24, r1
    1930:	da cf       	rjmp	.-76     	; 0x18e6 <.L4>

00001932 <.L28>:
    1932:	80 91 ce 05 	lds	r24, 0x05CE	; 0x8005ce <e+0x9>
    1936:	81 11       	cpse	r24, r1
    1938:	d6 cf       	rjmp	.-84     	; 0x18e6 <.L4>
    193a:	21 30       	cpi	r18, 0x01	; 1
    193c:	a1 f6       	brne	.-88     	; 0x18e6 <.L4>
    193e:	0e 94 54 07 	call	0xea8	; 0xea8 <indicatorTimed_stop>
    1942:	80 91 c8 05 	lds	r24, 0x05C8	; 0x8005c8 <e+0x3>
    1946:	8e 7f       	andi	r24, 0xFE	; 254
    1948:	80 93 c8 05 	sts	0x05C8, r24	; 0x8005c8 <e+0x3>
    194c:	88 e0       	ldi	r24, 0x08	; 8
    194e:	e3 eb       	ldi	r30, 0xB3	; 179
    1950:	f5 e0       	ldi	r31, 0x05	; 5
    1952:	ab e2       	ldi	r26, 0x2B	; 43
    1954:	b6 e0       	ldi	r27, 0x06	; 6

00001956 <.L^B1>:
    1956:	01 90       	ld	r0, Z+
    1958:	0d 92       	st	X+, r0
    195a:	8a 95       	dec	r24
    195c:	e1 f7       	brne	.-8      	; 0x1956 <.L^B1>
    195e:	f8 94       	cli
    1960:	88 e1       	ldi	r24, 0x18	; 24
    1962:	81 bd       	out	0x21, r24	; 33
    1964:	88 e0       	ldi	r24, 0x08	; 8
    1966:	81 bd       	out	0x21, r24	; 33

00001968 <.L6>:
    1968:	ff cf       	rjmp	.-2      	; 0x1968 <.L6>

0000196a <.L7>:
    196a:	31 30       	cpi	r19, 0x01	; 1
    196c:	09 f4       	brne	.+2      	; 0x1970 <.L12>

0000196e <L0^A>:
    196e:	59 c0       	rjmp	.+178    	; 0x1a22 <.L27>

00001970 <.L12>:
    1970:	80 91 c8 05 	lds	r24, 0x05C8	; 0x8005c8 <e+0x3>
    1974:	81 70       	andi	r24, 0x01	; 1
    1976:	2a 96       	adiw	r28, 0x0a	; 10
    1978:	0f b6       	in	r0, 0x3f	; 63
    197a:	f8 94       	cli
    197c:	de bf       	out	0x3e, r29	; 62
    197e:	0f be       	out	0x3f, r0	; 63
    1980:	cd bf       	out	0x3d, r28	; 61
    1982:	df 91       	pop	r29
    1984:	cf 91       	pop	r28
    1986:	08 95       	ret

00001988 <.L26>:
    1988:	20 e0       	ldi	r18, 0x00	; 0
    198a:	80 91 cc 05 	lds	r24, 0x05CC	; 0x8005cc <e+0x7>
    198e:	81 11       	cpse	r24, r1
    1990:	aa cf       	rjmp	.-172    	; 0x18e6 <.L4>
    1992:	cf cf       	rjmp	.-98     	; 0x1932 <.L28>

00001994 <.L3>:
    1994:	80 91 c8 05 	lds	r24, 0x05C8	; 0x8005c8 <e+0x3>
    1998:	81 60       	ori	r24, 0x01	; 1
    199a:	80 93 c8 05 	sts	0x05C8, r24	; 0x8005c8 <e+0x3>
    199e:	86 e9       	ldi	r24, 0x96	; 150
    19a0:	90 e0       	ldi	r25, 0x00	; 0
    19a2:	0e 94 4b 07 	call	0xe96	; 0xe96 <indicatorTimed_setKSysTickTime_ms>
    19a6:	0e 94 67 07 	call	0xece	; 0xece <indicatorTimed_cycle_start>
    19aa:	60 e0       	ldi	r22, 0x00	; 0
    19ac:	8d e3       	ldi	r24, 0x3D	; 61
    19ae:	96 e0       	ldi	r25, 0x06	; 6
    19b0:	0e 94 d5 03 	call	0x7aa	; 0x7aa <pid_pwm_set_pin>
    19b4:	88 e0       	ldi	r24, 0x08	; 8
    19b6:	eb e2       	ldi	r30, 0x2B	; 43
    19b8:	f6 e0       	ldi	r31, 0x06	; 6
    19ba:	a3 eb       	ldi	r26, 0xB3	; 179
    19bc:	b5 e0       	ldi	r27, 0x05	; 5

000019be <.L^B2>:
    19be:	01 90       	ld	r0, Z+
    19c0:	0d 92       	st	X+, r0
    19c2:	8a 95       	dec	r24
    19c4:	e1 f7       	brne	.-8      	; 0x19be <.L^B2>
    19c6:	8f cf       	rjmp	.-226    	; 0x18e6 <.L4>

000019c8 <.L25>:
    19c8:	0e 94 c9 13 	call	0x2792	; 0x2792 <disp7s_clear_all>
    19cc:	44 e0       	ldi	r20, 0x04	; 4
    19ce:	50 e0       	ldi	r21, 0x00	; 0
    19d0:	6b ea       	ldi	r22, 0xAB	; 171
    19d2:	74 e0       	ldi	r23, 0x04	; 4
    19d4:	ce 01       	movw	r24, r28
    19d6:	01 96       	adiw	r24, 0x01	; 1
    19d8:	0e 94 c2 23 	call	0x4784	; 0x4784 <strncpy>
    19dc:	44 e0       	ldi	r20, 0x04	; 4
    19de:	60 e0       	ldi	r22, 0x00	; 0
    19e0:	ce 01       	movw	r24, r28
    19e2:	01 96       	adiw	r24, 0x01	; 1
    19e4:	0e 94 85 13 	call	0x270a	; 0x270a <disp7s_update_data_array>
    19e8:	80 91 c5 05 	lds	r24, 0x05C5	; 0x8005c5 <e>
    19ec:	88 23       	and	r24, r24
    19ee:	a9 f1       	breq	.+106    	; 0x1a5a <.L29>
    19f0:	81 30       	cpi	r24, 0x01	; 1
    19f2:	e1 f1       	breq	.+120    	; 0x1a6c <.L30>
    19f4:	82 30       	cpi	r24, 0x02	; 2
    19f6:	09 f4       	brne	.+2      	; 0x19fa <.L10>

000019f8 <L0^A>:
    19f8:	42 c0       	rjmp	.+132    	; 0x1a7e <.L31>

000019fa <.L10>:
    19fa:	44 e0       	ldi	r20, 0x04	; 4
    19fc:	64 e0       	ldi	r22, 0x04	; 4
    19fe:	ce 01       	movw	r24, r28
    1a00:	01 96       	adiw	r24, 0x01	; 1
    1a02:	0e 94 85 13 	call	0x270a	; 0x270a <disp7s_update_data_array>
    1a06:	e0 91 c5 05 	lds	r30, 0x05C5	; 0x8005c5 <e>
    1a0a:	ee 0f       	add	r30, r30
    1a0c:	ff 0b       	sbc	r31, r31
    1a0e:	e7 53       	subi	r30, 0x37	; 55
    1a10:	fa 4f       	sbci	r31, 0xFA	; 250
    1a12:	80 81       	ld	r24, Z
    1a14:	8f 5f       	subi	r24, 0xFF	; 255
    1a16:	80 83       	st	Z, r24
    1a18:	10 92 c7 05 	sts	0x05C7, r1	; 0x8005c7 <e+0x2>
    1a1c:	10 92 c6 05 	sts	0x05C6, r1	; 0x8005c6 <e+0x1>
    1a20:	a7 cf       	rjmp	.-178    	; 0x1970 <.L12>

00001a22 <.L27>:
    1a22:	88 0f       	add	r24, r24
    1a24:	99 1f       	adc	r25, r25
    1a26:	fc 01       	movw	r30, r24
    1a28:	eb 53       	subi	r30, 0x3B	; 59
    1a2a:	fa 4f       	sbci	r31, 0xFA	; 250
    1a2c:	85 81       	ldd	r24, Z+5	; 0x05
    1a2e:	81 11       	cpse	r24, r1
    1a30:	02 c0       	rjmp	.+4      	; 0x1a36 <.L15>
    1a32:	1c 92       	st	X, r1
    1a34:	9d cf       	rjmp	.-198    	; 0x1970 <.L12>

00001a36 <.L15>:
    1a36:	80 91 ac 06 	lds	r24, 0x06AC	; 0x8006ac <mainflag>
    1a3a:	80 ff       	sbrs	r24, 0
    1a3c:	99 cf       	rjmp	.-206    	; 0x1970 <.L12>
    1a3e:	80 91 c6 05 	lds	r24, 0x05C6	; 0x8005c6 <e+0x1>
    1a42:	90 91 c7 05 	lds	r25, 0x05C7	; 0x8005c7 <e+0x2>
    1a46:	01 96       	adiw	r24, 0x01	; 1
    1a48:	88 3e       	cpi	r24, 0xE8	; 232
    1a4a:	33 e0       	ldi	r19, 0x03	; 3
    1a4c:	93 07       	cpc	r25, r19
    1a4e:	00 f5       	brcc	.+64     	; 0x1a90 <.L16>
    1a50:	90 93 c7 05 	sts	0x05C7, r25	; 0x8005c7 <e+0x2>
    1a54:	80 93 c6 05 	sts	0x05C6, r24	; 0x8005c6 <e+0x1>
    1a58:	8b cf       	rjmp	.-234    	; 0x1970 <.L12>

00001a5a <.L29>:
    1a5a:	44 e0       	ldi	r20, 0x04	; 4
    1a5c:	50 e0       	ldi	r21, 0x00	; 0
    1a5e:	67 ea       	ldi	r22, 0xA7	; 167
    1a60:	74 e0       	ldi	r23, 0x04	; 4
    1a62:	ce 01       	movw	r24, r28
    1a64:	01 96       	adiw	r24, 0x01	; 1
    1a66:	0e 94 c2 23 	call	0x4784	; 0x4784 <strncpy>
    1a6a:	c7 cf       	rjmp	.-114    	; 0x19fa <.L10>

00001a6c <.L30>:
    1a6c:	44 e0       	ldi	r20, 0x04	; 4
    1a6e:	50 e0       	ldi	r21, 0x00	; 0
    1a70:	63 ea       	ldi	r22, 0xA3	; 163
    1a72:	74 e0       	ldi	r23, 0x04	; 4
    1a74:	ce 01       	movw	r24, r28
    1a76:	01 96       	adiw	r24, 0x01	; 1
    1a78:	0e 94 c2 23 	call	0x4784	; 0x4784 <strncpy>
    1a7c:	be cf       	rjmp	.-132    	; 0x19fa <.L10>

00001a7e <.L31>:
    1a7e:	44 e0       	ldi	r20, 0x04	; 4
    1a80:	50 e0       	ldi	r21, 0x00	; 0
    1a82:	6f e9       	ldi	r22, 0x9F	; 159
    1a84:	74 e0       	ldi	r23, 0x04	; 4
    1a86:	ce 01       	movw	r24, r28
    1a88:	01 96       	adiw	r24, 0x01	; 1
    1a8a:	0e 94 c2 23 	call	0x4784	; 0x4784 <strncpy>
    1a8e:	b5 cf       	rjmp	.-150    	; 0x19fa <.L10>

00001a90 <.L16>:
    1a90:	10 92 c7 05 	sts	0x05C7, r1	; 0x8005c7 <e+0x2>
    1a94:	10 92 c6 05 	sts	0x05C6, r1	; 0x8005c6 <e+0x1>
    1a98:	1c 92       	st	X, r1
    1a9a:	3c cf       	rjmp	.-392    	; 0x1914 <.L23>

00001a9c <blink_set>:
    1a9c:	90 93 d0 05 	sts	0x05D0, r25	; 0x8005d0 <blink+0x1>
    1aa0:	80 93 cf 05 	sts	0x05CF, r24	; 0x8005cf <blink>
    1aa4:	08 95       	ret

00001aa6 <blink_reset>:
    1aa6:	e0 91 cf 05 	lds	r30, 0x05CF	; 0x8005cf <blink>
    1aaa:	f0 91 d0 05 	lds	r31, 0x05D0	; 0x8005d0 <blink+0x1>
    1aae:	11 82       	std	Z+1, r1	; 0x01
    1ab0:	10 82       	st	Z, r1
    1ab2:	81 70       	andi	r24, 0x01	; 1
    1ab4:	82 60       	ori	r24, 0x02	; 2
    1ab6:	94 81       	ldd	r25, Z+4	; 0x04
    1ab8:	9c 7f       	andi	r25, 0xFC	; 252
    1aba:	89 2b       	or	r24, r25
    1abc:	84 83       	std	Z+4, r24	; 0x04
    1abe:	08 95       	ret

00001ac0 <blink_timing>:
    1ac0:	e0 91 cf 05 	lds	r30, 0x05CF	; 0x8005cf <blink>
    1ac4:	f0 91 d0 05 	lds	r31, 0x05D0	; 0x8005d0 <blink+0x1>
    1ac8:	80 81       	ld	r24, Z
    1aca:	91 81       	ldd	r25, Z+1	; 0x01
    1acc:	01 96       	adiw	r24, 0x01	; 1
    1ace:	91 83       	std	Z+1, r25	; 0x01
    1ad0:	80 83       	st	Z, r24
    1ad2:	22 81       	ldd	r18, Z+2	; 0x02
    1ad4:	33 81       	ldd	r19, Z+3	; 0x03
    1ad6:	82 17       	cp	r24, r18
    1ad8:	93 07       	cpc	r25, r19
    1ada:	50 f0       	brcs	.+20     	; 0x1af0 <.L4>
    1adc:	11 82       	std	Z+1, r1	; 0x01
    1ade:	10 82       	st	Z, r1
    1ae0:	94 81       	ldd	r25, Z+4	; 0x04
    1ae2:	89 2f       	mov	r24, r25
    1ae4:	80 95       	com	r24
    1ae6:	81 70       	andi	r24, 0x01	; 1
    1ae8:	82 60       	ori	r24, 0x02	; 2
    1aea:	9c 7f       	andi	r25, 0xFC	; 252
    1aec:	89 2b       	or	r24, r25
    1aee:	84 83       	std	Z+4, r24	; 0x04

00001af0 <.L4>:
    1af0:	08 95       	ret

00001af2 <ADC_set_channel>:
    1af2:	97 b1       	in	r25, 0x07	; 7
    1af4:	90 7e       	andi	r25, 0xE0	; 224
    1af6:	8f 71       	andi	r24, 0x1F	; 31
    1af8:	98 2b       	or	r25, r24
    1afa:	97 b9       	out	0x07, r25	; 7
    1afc:	08 95       	ret

00001afe <ADC_set_reference>:
    1afe:	27 b1       	in	r18, 0x07	; 7
    1b00:	2f 73       	andi	r18, 0x3F	; 63
    1b02:	30 e4       	ldi	r19, 0x40	; 64
    1b04:	83 9f       	mul	r24, r19
    1b06:	c0 01       	movw	r24, r0
    1b08:	11 24       	eor	r1, r1
    1b0a:	82 2b       	or	r24, r18
    1b0c:	87 b9       	out	0x07, r24	; 7
    1b0e:	08 95       	ret

00001b10 <ADC_set_prescaler>:
    1b10:	96 b1       	in	r25, 0x06	; 6
    1b12:	98 7f       	andi	r25, 0xF8	; 248
    1b14:	89 2b       	or	r24, r25
    1b16:	86 b9       	out	0x06, r24	; 6
    1b18:	08 95       	ret

00001b1a <ADC_enable>:
    1b1a:	37 9a       	sbi	0x06, 7	; 6
    1b1c:	08 95       	ret

00001b1e <ADC_disable>:
    1b1e:	37 98       	cbi	0x06, 7	; 6
    1b20:	08 95       	ret

00001b22 <ADC_set_adjust>:
    1b22:	81 11       	cpse	r24, r1
    1b24:	02 c0       	rjmp	.+4      	; 0x1b2a <.L8>
    1b26:	3d 98       	cbi	0x07, 5	; 7
    1b28:	08 95       	ret

00001b2a <.L8>:
    1b2a:	3d 9a       	sbi	0x07, 5	; 7
    1b2c:	08 95       	ret

00001b2e <ADC_get_resultH>:
    1b2e:	85 b1       	in	r24, 0x05	; 5
    1b30:	08 95       	ret

00001b32 <ADC_get_resultL>:
    1b32:	84 b1       	in	r24, 0x04	; 4
    1b34:	08 95       	ret

00001b36 <ADC_init>:
    1b36:	97 b1       	in	r25, 0x07	; 7
    1b38:	9f 73       	andi	r25, 0x3F	; 63
    1b3a:	20 e4       	ldi	r18, 0x40	; 64
    1b3c:	62 9f       	mul	r22, r18
    1b3e:	b0 01       	movw	r22, r0
    1b40:	11 24       	eor	r1, r1
    1b42:	69 2b       	or	r22, r25
    1b44:	67 b9       	out	0x07, r22	; 7
    1b46:	96 b1       	in	r25, 0x06	; 6
    1b48:	98 7f       	andi	r25, 0xF8	; 248
    1b4a:	49 2b       	or	r20, r25
    1b4c:	46 b9       	out	0x06, r20	; 6
    1b4e:	8f 3f       	cpi	r24, 0xFF	; 255
    1b50:	59 f0       	breq	.+22     	; 0x1b68 <.L15>
    1b52:	35 9a       	sbi	0x06, 5	; 6
    1b54:	20 b7       	in	r18, 0x30	; 48
    1b56:	2f 70       	andi	r18, 0x0F	; 15
    1b58:	30 e2       	ldi	r19, 0x20	; 32
    1b5a:	83 02       	muls	r24, r19
    1b5c:	c0 01       	movw	r24, r0
    1b5e:	11 24       	eor	r1, r1
    1b60:	82 2b       	or	r24, r18
    1b62:	80 bf       	out	0x30, r24	; 48
    1b64:	37 9a       	sbi	0x06, 7	; 6
    1b66:	08 95       	ret

00001b68 <.L15>:
    1b68:	35 98       	cbi	0x06, 5	; 6
    1b6a:	37 9a       	sbi	0x06, 7	; 6
    1b6c:	08 95       	ret

00001b6e <ADC_start_conv>:
    1b6e:	97 b1       	in	r25, 0x07	; 7
    1b70:	90 7e       	andi	r25, 0xE0	; 224
    1b72:	8f 71       	andi	r24, 0x1F	; 31
    1b74:	98 2b       	or	r25, r24
    1b76:	97 b9       	out	0x07, r25	; 7
    1b78:	36 9a       	sbi	0x06, 6	; 6
    1b7a:	08 95       	ret

00001b7c <ADC_start_and_wait_conv>:
    1b7c:	97 b1       	in	r25, 0x07	; 7
    1b7e:	90 7e       	andi	r25, 0xE0	; 224
    1b80:	8f 71       	andi	r24, 0x1F	; 31
    1b82:	98 2b       	or	r25, r24
    1b84:	97 b9       	out	0x07, r25	; 7
    1b86:	36 9a       	sbi	0x06, 6	; 6

00001b88 <.L18>:
    1b88:	34 9b       	sbis	0x06, 4	; 6
    1b8a:	fe cf       	rjmp	.-4      	; 0x1b88 <.L18>
    1b8c:	34 9a       	sbi	0x06, 4	; 6
    1b8e:	08 95       	ret

00001b90 <ADC_read>:
    1b90:	35 99       	sbic	0x06, 5	; 6
    1b92:	19 c0       	rjmp	.+50     	; 0x1bc6 <.L22>
    1b94:	97 b1       	in	r25, 0x07	; 7
    1b96:	90 7e       	andi	r25, 0xE0	; 224
    1b98:	8f 71       	andi	r24, 0x1F	; 31
    1b9a:	89 2b       	or	r24, r25
    1b9c:	87 b9       	out	0x07, r24	; 7
    1b9e:	36 9a       	sbi	0x06, 6	; 6

00001ba0 <.L23>:
    1ba0:	34 9b       	sbis	0x06, 4	; 6
    1ba2:	fe cf       	rjmp	.-4      	; 0x1ba0 <.L23>
    1ba4:	34 9a       	sbi	0x06, 4	; 6
    1ba6:	24 b1       	in	r18, 0x04	; 4
    1ba8:	3d 9b       	sbis	0x07, 5	; 7
    1baa:	14 c0       	rjmp	.+40     	; 0x1bd4 <.L26>

00001bac <.L33>:
    1bac:	85 b1       	in	r24, 0x05	; 5
    1bae:	90 e0       	ldi	r25, 0x00	; 0
    1bb0:	88 0f       	add	r24, r24
    1bb2:	99 1f       	adc	r25, r25
    1bb4:	88 0f       	add	r24, r24
    1bb6:	99 1f       	adc	r25, r25
    1bb8:	22 95       	swap	r18
    1bba:	26 95       	lsr	r18
    1bbc:	26 95       	lsr	r18
    1bbe:	23 70       	andi	r18, 0x03	; 3
    1bc0:	82 0f       	add	r24, r18
    1bc2:	91 1d       	adc	r25, r1
    1bc4:	08 95       	ret

00001bc6 <.L22>:
    1bc6:	34 9a       	sbi	0x06, 4	; 6

00001bc8 <.L25>:
    1bc8:	34 9b       	sbis	0x06, 4	; 6
    1bca:	fe cf       	rjmp	.-4      	; 0x1bc8 <.L25>
    1bcc:	34 9a       	sbi	0x06, 4	; 6
    1bce:	24 b1       	in	r18, 0x04	; 4
    1bd0:	3d 99       	sbic	0x07, 5	; 7
    1bd2:	ec cf       	rjmp	.-40     	; 0x1bac <.L33>

00001bd4 <.L26>:
    1bd4:	85 b1       	in	r24, 0x05	; 5
    1bd6:	90 e0       	ldi	r25, 0x00	; 0
    1bd8:	98 2f       	mov	r25, r24
    1bda:	88 27       	eor	r24, r24
    1bdc:	82 0f       	add	r24, r18
    1bde:	91 1d       	adc	r25, r1
    1be0:	08 95       	ret

00001be2 <T_rtd>:
    1be2:	af 92       	push	r10
    1be4:	bf 92       	push	r11
    1be6:	cf 92       	push	r12
    1be8:	df 92       	push	r13
    1bea:	ef 92       	push	r14
    1bec:	ff 92       	push	r15
    1bee:	0f 93       	push	r16
    1bf0:	1f 93       	push	r17
    1bf2:	cf 93       	push	r28
    1bf4:	df 93       	push	r29
    1bf6:	00 d0       	rcall	.+0      	; 0x1bf8 <L0^A>

00001bf8 <L0^A>:
    1bf8:	00 d0       	rcall	.+0      	; 0x1bfa <L0^A>

00001bfa <L0^A>:
    1bfa:	00 d0       	rcall	.+0      	; 0x1bfc <L0^A>

00001bfc <L0^A>:
    1bfc:	cd b7       	in	r28, 0x3d	; 61
    1bfe:	de b7       	in	r29, 0x3e	; 62
    1c00:	5b 01       	movw	r10, r22
    1c02:	8c 01       	movw	r16, r24
    1c04:	20 e0       	ldi	r18, 0x00	; 0
    1c06:	30 e0       	ldi	r19, 0x00	; 0
    1c08:	48 ec       	ldi	r20, 0xC8	; 200
    1c0a:	52 e4       	ldi	r21, 0x42	; 66
    1c0c:	69 83       	std	Y+1, r22	; 0x01
    1c0e:	ba 82       	std	Y+2, r11	; 0x02
    1c10:	8b 83       	std	Y+3, r24	; 0x03
    1c12:	1c 83       	std	Y+4, r17	; 0x04
    1c14:	69 81       	ldd	r22, Y+1	; 0x01
    1c16:	7a 81       	ldd	r23, Y+2	; 0x02
    1c18:	8b 81       	ldd	r24, Y+3	; 0x03
    1c1a:	9c 81       	ldd	r25, Y+4	; 0x04
    1c1c:	0e 94 6b 21 	call	0x42d6	; 0x42d6 <__subsf3>
    1c20:	2f ea       	ldi	r18, 0xAF	; 175
    1c22:	30 ed       	ldi	r19, 0xD0	; 208
    1c24:	4f ea       	ldi	r20, 0xAF	; 175
    1c26:	5e e3       	ldi	r21, 0x3E	; 62
    1c28:	69 83       	std	Y+1, r22	; 0x01
    1c2a:	7a 83       	std	Y+2, r23	; 0x02
    1c2c:	8b 83       	std	Y+3, r24	; 0x03
    1c2e:	9c 83       	std	Y+4, r25	; 0x04
    1c30:	69 81       	ldd	r22, Y+1	; 0x01
    1c32:	7a 81       	ldd	r23, Y+2	; 0x02
    1c34:	8b 81       	ldd	r24, Y+3	; 0x03
    1c36:	9c 81       	ldd	r25, Y+4	; 0x04
    1c38:	0e 94 dd 21 	call	0x43ba	; 0x43ba <__divsf3>
    1c3c:	69 83       	std	Y+1, r22	; 0x01
    1c3e:	7a 83       	std	Y+2, r23	; 0x02
    1c40:	8b 83       	std	Y+3, r24	; 0x03
    1c42:	9c 83       	std	Y+4, r25	; 0x04
    1c44:	69 81       	ldd	r22, Y+1	; 0x01
    1c46:	7a 81       	ldd	r23, Y+2	; 0x02
    1c48:	8b 81       	ldd	r24, Y+3	; 0x03
    1c4a:	9c 81       	ldd	r25, Y+4	; 0x04
    1c4c:	0e 94 4f 22 	call	0x449e	; 0x449e <__fixsfsi>
    1c50:	6d 83       	std	Y+5, r22	; 0x05
    1c52:	7e 83       	std	Y+6, r23	; 0x06
    1c54:	8d 81       	ldd	r24, Y+5	; 0x05
    1c56:	9e 81       	ldd	r25, Y+6	; 0x06
    1c58:	8f 3f       	cpi	r24, 0xFF	; 255
    1c5a:	91 05       	cpc	r25, r1
    1c5c:	0c f4       	brge	.+2      	; 0x1c60 <L0^A+0x2>

00001c5e <L0^A>:
    1c5e:	97 c0       	rjmp	.+302    	; 0x1d8e <.L2>
    1c60:	ae ef       	ldi	r26, 0xFE	; 254
    1c62:	b0 e0       	ldi	r27, 0x00	; 0
    1c64:	be 83       	std	Y+6, r27	; 0x06
    1c66:	ad 83       	std	Y+5, r26	; 0x05

00001c68 <.L3>:
    1c68:	ed 81       	ldd	r30, Y+5	; 0x05
    1c6a:	fe 81       	ldd	r31, Y+6	; 0x06
    1c6c:	ee 0f       	add	r30, r30
    1c6e:	ff 1f       	adc	r31, r31
    1c70:	ee 0f       	add	r30, r30
    1c72:	ff 1f       	adc	r31, r31
    1c74:	e9 56       	subi	r30, 0x69	; 105
    1c76:	ff 4f       	sbci	r31, 0xFF	; 255
    1c78:	c0 80       	ld	r12, Z
    1c7a:	d1 80       	ldd	r13, Z+1	; 0x01
    1c7c:	e2 80       	ldd	r14, Z+2	; 0x02
    1c7e:	f3 80       	ldd	r15, Z+3	; 0x03
    1c80:	8d 81       	ldd	r24, Y+5	; 0x05
    1c82:	9e 81       	ldd	r25, Y+6	; 0x06
    1c84:	09 2e       	mov	r0, r25
    1c86:	00 0c       	add	r0, r0
    1c88:	aa 0b       	sbc	r26, r26
    1c8a:	bb 0b       	sbc	r27, r27
    1c8c:	89 83       	std	Y+1, r24	; 0x01
    1c8e:	9a 83       	std	Y+2, r25	; 0x02
    1c90:	ab 83       	std	Y+3, r26	; 0x03
    1c92:	bc 83       	std	Y+4, r27	; 0x04
    1c94:	bc 01       	movw	r22, r24
    1c96:	cd 01       	movw	r24, r26
    1c98:	0e 94 87 22 	call	0x450e	; 0x450e <__floatsisf>
    1c9c:	2f ea       	ldi	r18, 0xAF	; 175
    1c9e:	30 ed       	ldi	r19, 0xD0	; 208
    1ca0:	4f ea       	ldi	r20, 0xAF	; 175
    1ca2:	5e e3       	ldi	r21, 0x3E	; 62
    1ca4:	69 83       	std	Y+1, r22	; 0x01
    1ca6:	7a 83       	std	Y+2, r23	; 0x02
    1ca8:	8b 83       	std	Y+3, r24	; 0x03
    1caa:	9c 83       	std	Y+4, r25	; 0x04
    1cac:	69 81       	ldd	r22, Y+1	; 0x01
    1cae:	7a 81       	ldd	r23, Y+2	; 0x02
    1cb0:	8b 81       	ldd	r24, Y+3	; 0x03
    1cb2:	9c 81       	ldd	r25, Y+4	; 0x04
    1cb4:	0e 94 3c 23 	call	0x4678	; 0x4678 <__mulsf3>
    1cb8:	20 e0       	ldi	r18, 0x00	; 0
    1cba:	30 e0       	ldi	r19, 0x00	; 0
    1cbc:	48 ec       	ldi	r20, 0xC8	; 200
    1cbe:	52 e4       	ldi	r21, 0x42	; 66
    1cc0:	69 83       	std	Y+1, r22	; 0x01
    1cc2:	7a 83       	std	Y+2, r23	; 0x02
    1cc4:	8b 83       	std	Y+3, r24	; 0x03
    1cc6:	9c 83       	std	Y+4, r25	; 0x04
    1cc8:	69 81       	ldd	r22, Y+1	; 0x01
    1cca:	7a 81       	ldd	r23, Y+2	; 0x02
    1ccc:	8b 81       	ldd	r24, Y+3	; 0x03
    1cce:	9c 81       	ldd	r25, Y+4	; 0x04
    1cd0:	0e 94 6c 21 	call	0x42d8	; 0x42d8 <__addsf3>
    1cd4:	9b 01       	movw	r18, r22
    1cd6:	ac 01       	movw	r20, r24
    1cd8:	a9 82       	std	Y+1, r10	; 0x01
    1cda:	ba 82       	std	Y+2, r11	; 0x02
    1cdc:	0b 83       	std	Y+3, r16	; 0x03
    1cde:	1c 83       	std	Y+4, r17	; 0x04
    1ce0:	69 81       	ldd	r22, Y+1	; 0x01
    1ce2:	7a 81       	ldd	r23, Y+2	; 0x02
    1ce4:	8b 81       	ldd	r24, Y+3	; 0x03
    1ce6:	9c 81       	ldd	r25, Y+4	; 0x04
    1ce8:	0e 94 6b 21 	call	0x42d6	; 0x42d6 <__subsf3>
    1cec:	5b 01       	movw	r10, r22
    1cee:	8c 01       	movw	r16, r24
    1cf0:	ad 81       	ldd	r26, Y+5	; 0x05
    1cf2:	be 81       	ldd	r27, Y+6	; 0x06
    1cf4:	aa 0f       	add	r26, r26
    1cf6:	bb 1f       	adc	r27, r27
    1cf8:	aa 0f       	add	r26, r26
    1cfa:	bb 1f       	adc	r27, r27
    1cfc:	a5 56       	subi	r26, 0x65	; 101
    1cfe:	bf 4f       	sbci	r27, 0xFF	; 255
    1d00:	a7 01       	movw	r20, r14
    1d02:	96 01       	movw	r18, r12
    1d04:	6d 91       	ld	r22, X+
    1d06:	7d 91       	ld	r23, X+
    1d08:	8d 91       	ld	r24, X+
    1d0a:	9c 91       	ld	r25, X
    1d0c:	0e 94 6b 21 	call	0x42d6	; 0x42d6 <__subsf3>
    1d10:	9b 01       	movw	r18, r22
    1d12:	ac 01       	movw	r20, r24
    1d14:	a9 82       	std	Y+1, r10	; 0x01
    1d16:	ba 82       	std	Y+2, r11	; 0x02
    1d18:	0b 83       	std	Y+3, r16	; 0x03
    1d1a:	1c 83       	std	Y+4, r17	; 0x04
    1d1c:	69 81       	ldd	r22, Y+1	; 0x01
    1d1e:	7a 81       	ldd	r23, Y+2	; 0x02
    1d20:	8b 81       	ldd	r24, Y+3	; 0x03
    1d22:	9c 81       	ldd	r25, Y+4	; 0x04
    1d24:	0e 94 3c 23 	call	0x4678	; 0x4678 <__mulsf3>
    1d28:	2f ea       	ldi	r18, 0xAF	; 175
    1d2a:	30 ed       	ldi	r19, 0xD0	; 208
    1d2c:	4f ea       	ldi	r20, 0xAF	; 175
    1d2e:	5e e3       	ldi	r21, 0x3E	; 62
    1d30:	69 83       	std	Y+1, r22	; 0x01
    1d32:	7a 83       	std	Y+2, r23	; 0x02
    1d34:	8b 83       	std	Y+3, r24	; 0x03
    1d36:	9c 83       	std	Y+4, r25	; 0x04
    1d38:	69 81       	ldd	r22, Y+1	; 0x01
    1d3a:	7a 81       	ldd	r23, Y+2	; 0x02
    1d3c:	8b 81       	ldd	r24, Y+3	; 0x03
    1d3e:	9c 81       	ldd	r25, Y+4	; 0x04
    1d40:	0e 94 dd 21 	call	0x43ba	; 0x43ba <__divsf3>
    1d44:	a7 01       	movw	r20, r14
    1d46:	96 01       	movw	r18, r12
    1d48:	69 83       	std	Y+1, r22	; 0x01
    1d4a:	7a 83       	std	Y+2, r23	; 0x02
    1d4c:	8b 83       	std	Y+3, r24	; 0x03
    1d4e:	9c 83       	std	Y+4, r25	; 0x04
    1d50:	69 81       	ldd	r22, Y+1	; 0x01
    1d52:	7a 81       	ldd	r23, Y+2	; 0x02
    1d54:	8b 81       	ldd	r24, Y+3	; 0x03
    1d56:	9c 81       	ldd	r25, Y+4	; 0x04
    1d58:	0e 94 6c 21 	call	0x42d8	; 0x42d8 <__addsf3>
    1d5c:	69 83       	std	Y+1, r22	; 0x01
    1d5e:	7a 83       	std	Y+2, r23	; 0x02
    1d60:	8b 83       	std	Y+3, r24	; 0x03
    1d62:	9c 83       	std	Y+4, r25	; 0x04
    1d64:	69 81       	ldd	r22, Y+1	; 0x01
    1d66:	7a 81       	ldd	r23, Y+2	; 0x02
    1d68:	8b 81       	ldd	r24, Y+3	; 0x03
    1d6a:	9c 81       	ldd	r25, Y+4	; 0x04
    1d6c:	0f 90       	pop	r0
    1d6e:	0f 90       	pop	r0
    1d70:	0f 90       	pop	r0
    1d72:	0f 90       	pop	r0
    1d74:	0f 90       	pop	r0
    1d76:	0f 90       	pop	r0
    1d78:	df 91       	pop	r29
    1d7a:	cf 91       	pop	r28
    1d7c:	1f 91       	pop	r17
    1d7e:	0f 91       	pop	r16
    1d80:	ff 90       	pop	r15
    1d82:	ef 90       	pop	r14
    1d84:	df 90       	pop	r13
    1d86:	cf 90       	pop	r12
    1d88:	bf 90       	pop	r11
    1d8a:	af 90       	pop	r10
    1d8c:	08 95       	ret

00001d8e <.L2>:
    1d8e:	97 ff       	sbrs	r25, 7
    1d90:	6b cf       	rjmp	.-298    	; 0x1c68 <.L3>
    1d92:	1e 82       	std	Y+6, r1	; 0x06
    1d94:	1d 82       	std	Y+5, r1	; 0x05
    1d96:	68 cf       	rjmp	.-304    	; 0x1c68 <.L3>

00001d98 <MAX6675_formatText3dig>:
    1d98:	0f 93       	push	r16
    1d9a:	1f 93       	push	r17
    1d9c:	cf 93       	push	r28
    1d9e:	df 93       	push	r29
    1da0:	8c 01       	movw	r16, r24
    1da2:	eb 01       	movw	r28, r22
    1da4:	44 e0       	ldi	r20, 0x04	; 4
    1da6:	60 e0       	ldi	r22, 0x00	; 0
    1da8:	ce 01       	movw	r24, r28
    1daa:	0e 94 76 13 	call	0x26ec	; 0x26ec <disp7s_blank_displays>
    1dae:	0f 3f       	cpi	r16, 0xFF	; 255
    1db0:	10 07       	cpc	r17, r16
    1db2:	09 f1       	breq	.+66     	; 0x1df6 <.L9>
    1db4:	08 3e       	cpi	r16, 0xE8	; 232
    1db6:	83 e0       	ldi	r24, 0x03	; 3
    1db8:	18 07       	cpc	r17, r24
    1dba:	74 f0       	brlt	.+28     	; 0x1dd8 <.L8>
    1dbc:	8b e1       	ldi	r24, 0x1B	; 27
    1dbe:	88 83       	st	Y, r24
    1dc0:	8b e0       	ldi	r24, 0x0B	; 11
    1dc2:	89 83       	std	Y+1, r24	; 0x01
    1dc4:	89 e3       	ldi	r24, 0x39	; 57
    1dc6:	8a 83       	std	Y+2, r24	; 0x02
    1dc8:	ce 01       	movw	r24, r28
    1dca:	02 96       	adiw	r24, 0x02	; 2
    1dcc:	df 91       	pop	r29
    1dce:	cf 91       	pop	r28
    1dd0:	1f 91       	pop	r17
    1dd2:	0f 91       	pop	r16
    1dd4:	0c 94 3b 13 	jmp	0x2676	; 0x2676 <disp7s_fix_upsidedown_display>

00001dd8 <.L8>:
    1dd8:	43 e0       	ldi	r20, 0x03	; 3
    1dda:	be 01       	movw	r22, r28
    1ddc:	c8 01       	movw	r24, r16
    1dde:	0e 94 d1 13 	call	0x27a2	; 0x27a2 <integer_to_arraybcd_msb_lsb_paddingleft_blank>
    1de2:	80 ef       	ldi	r24, 0xF0	; 240
    1de4:	8b 83       	std	Y+3, r24	; 0x03
    1de6:	ce 01       	movw	r24, r28
    1de8:	02 96       	adiw	r24, 0x02	; 2
    1dea:	df 91       	pop	r29
    1dec:	cf 91       	pop	r28
    1dee:	1f 91       	pop	r17
    1df0:	0f 91       	pop	r16
    1df2:	0c 94 3b 13 	jmp	0x2676	; 0x2676 <disp7s_fix_upsidedown_display>

00001df6 <.L9>:
    1df6:	87 e1       	ldi	r24, 0x17	; 23
    1df8:	88 83       	st	Y, r24
    1dfa:	89 e1       	ldi	r24, 0x19	; 25
    1dfc:	89 83       	std	Y+1, r24	; 0x01
    1dfe:	ce 01       	movw	r24, r28
    1e00:	02 96       	adiw	r24, 0x02	; 2
    1e02:	df 91       	pop	r29
    1e04:	cf 91       	pop	r28
    1e06:	1f 91       	pop	r17
    1e08:	0f 91       	pop	r16
    1e0a:	0c 94 3b 13 	jmp	0x2676	; 0x2676 <disp7s_fix_upsidedown_display>

00001e0e <AdqAccSamples>:
    1e0e:	80 91 d2 05 	lds	r24, 0x05D2	; 0x8005d2 <sm0.1>
    1e12:	90 91 d3 05 	lds	r25, 0x05D3	; 0x8005d3 <sm0.1+0x1>
    1e16:	89 2b       	or	r24, r25
    1e18:	31 f4       	brne	.+12     	; 0x1e26 <.L11>
    1e1a:	80 91 ac 06 	lds	r24, 0x06AC	; 0x8006ac <mainflag>
    1e1e:	83 ff       	sbrs	r24, 3
    1e20:	31 c0       	rjmp	.+98     	; 0x1e84 <.L17>

00001e22 <.L13>:
    1e22:	80 e0       	ldi	r24, 0x00	; 0
    1e24:	08 95       	ret

00001e26 <.L11>:
    1e26:	80 91 ae 06 	lds	r24, 0x06AE	; 0x8006ae <isr_flag>
    1e2a:	81 ff       	sbrs	r24, 1
    1e2c:	fa cf       	rjmp	.-12     	; 0x1e22 <.L13>
    1e2e:	80 91 ae 06 	lds	r24, 0x06AE	; 0x8006ae <isr_flag>
    1e32:	8d 7f       	andi	r24, 0xFD	; 253
    1e34:	80 93 ae 06 	sts	0x06AE, r24	; 0x8006ae <isr_flag>
    1e38:	80 91 ac 06 	lds	r24, 0x06AC	; 0x8006ac <mainflag>
    1e3c:	87 7f       	andi	r24, 0xF7	; 247
    1e3e:	80 93 ac 06 	sts	0x06AC, r24	; 0x8006ac <mainflag>
    1e42:	10 92 d3 05 	sts	0x05D3, r1	; 0x8005d3 <sm0.1+0x1>
    1e46:	10 92 d2 05 	sts	0x05D2, r1	; 0x8005d2 <sm0.1>
    1e4a:	44 b1       	in	r20, 0x04	; 4
    1e4c:	85 b1       	in	r24, 0x05	; 5
    1e4e:	20 91 6e 06 	lds	r18, 0x066E	; 0x80066e <job_captureTemperature+0x1>
    1e52:	30 91 6f 06 	lds	r19, 0x066F	; 0x80066f <job_captureTemperature+0x2>
    1e56:	f9 01       	movw	r30, r18
    1e58:	ee 0f       	add	r30, r30
    1e5a:	ff 1f       	adc	r31, r31
    1e5c:	eb 51       	subi	r30, 0x1B	; 27
    1e5e:	fa 4f       	sbci	r31, 0xFA	; 250
    1e60:	90 e0       	ldi	r25, 0x00	; 0
    1e62:	98 2f       	mov	r25, r24
    1e64:	88 27       	eor	r24, r24
    1e66:	84 0f       	add	r24, r20
    1e68:	91 1d       	adc	r25, r1
    1e6a:	91 83       	std	Z+1, r25	; 0x01
    1e6c:	80 83       	st	Z, r24
    1e6e:	2f 5f       	subi	r18, 0xFF	; 255
    1e70:	3f 4f       	sbci	r19, 0xFF	; 255
    1e72:	2e 31       	cpi	r18, 0x1E	; 30
    1e74:	31 05       	cpc	r19, r1
    1e76:	d0 f4       	brcc	.+52     	; 0x1eac <.L16>
    1e78:	30 93 6f 06 	sts	0x066F, r19	; 0x80066f <job_captureTemperature+0x2>
    1e7c:	20 93 6e 06 	sts	0x066E, r18	; 0x80066e <job_captureTemperature+0x1>
    1e80:	80 e0       	ldi	r24, 0x00	; 0
    1e82:	08 95       	ret

00001e84 <.L17>:
    1e84:	88 60       	ori	r24, 0x08	; 8
    1e86:	80 93 ac 06 	sts	0x06AC, r24	; 0x8006ac <mainflag>
    1e8a:	81 e0       	ldi	r24, 0x01	; 1
    1e8c:	0e 94 7f 0d 	call	0x1afe	; 0x1afe <ADC_set_reference>
    1e90:	82 e0       	ldi	r24, 0x02	; 2
    1e92:	0e 94 b7 0d 	call	0x1b6e	; 0x1b6e <ADC_start_conv>
    1e96:	80 91 d2 05 	lds	r24, 0x05D2	; 0x8005d2 <sm0.1>
    1e9a:	90 91 d3 05 	lds	r25, 0x05D3	; 0x8005d3 <sm0.1+0x1>
    1e9e:	01 96       	adiw	r24, 0x01	; 1
    1ea0:	90 93 d3 05 	sts	0x05D3, r25	; 0x8005d3 <sm0.1+0x1>
    1ea4:	80 93 d2 05 	sts	0x05D2, r24	; 0x8005d2 <sm0.1>
    1ea8:	80 e0       	ldi	r24, 0x00	; 0
    1eaa:	08 95       	ret

00001eac <.L16>:
    1eac:	10 92 6f 06 	sts	0x066F, r1	; 0x80066f <job_captureTemperature+0x2>
    1eb0:	10 92 6e 06 	sts	0x066E, r1	; 0x80066e <job_captureTemperature+0x1>
    1eb4:	81 e0       	ldi	r24, 0x01	; 1
    1eb6:	08 95       	ret

00001eb8 <MAX6675_smoothAlg_nonblock_job>:
    1eb8:	4f 92       	push	r4
    1eba:	5f 92       	push	r5
    1ebc:	6f 92       	push	r6
    1ebe:	7f 92       	push	r7
    1ec0:	af 92       	push	r10
    1ec2:	bf 92       	push	r11
    1ec4:	cf 92       	push	r12
    1ec6:	df 92       	push	r13
    1ec8:	ef 92       	push	r14
    1eca:	ff 92       	push	r15
    1ecc:	0f 93       	push	r16
    1ece:	1f 93       	push	r17
    1ed0:	cf 93       	push	r28
    1ed2:	df 93       	push	r29
    1ed4:	cd b7       	in	r28, 0x3d	; 61
    1ed6:	de b7       	in	r29, 0x3e	; 62
    1ed8:	28 97       	sbiw	r28, 0x08	; 8
    1eda:	0f b6       	in	r0, 0x3f	; 63
    1edc:	f8 94       	cli
    1ede:	de bf       	out	0x3e, r29	; 62
    1ee0:	0f be       	out	0x3f, r0	; 63
    1ee2:	cd bf       	out	0x3d, r28	; 61
    1ee4:	8c 01       	movw	r16, r24
    1ee6:	9e 01       	movw	r18, r28
    1ee8:	2f 5f       	subi	r18, 0xFF	; 255
    1eea:	3f 4f       	sbci	r19, 0xFF	; 255
    1eec:	4e e1       	ldi	r20, 0x1E	; 30
    1eee:	50 e0       	ldi	r21, 0x00	; 0
    1ef0:	65 ee       	ldi	r22, 0xE5	; 229
    1ef2:	75 e0       	ldi	r23, 0x05	; 5
    1ef4:	84 ed       	ldi	r24, 0xD4	; 212
    1ef6:	95 e0       	ldi	r25, 0x05	; 5
    1ef8:	0e 94 7e 01 	call	0x2fc	; 0x2fc <smoothAlg_nonblock>
    1efc:	81 11       	cpse	r24, r1
    1efe:	15 c0       	rjmp	.+42     	; 0x1f2a <.L30>

00001f00 <.L18>:
    1f00:	28 96       	adiw	r28, 0x08	; 8
    1f02:	0f b6       	in	r0, 0x3f	; 63
    1f04:	f8 94       	cli
    1f06:	de bf       	out	0x3e, r29	; 62
    1f08:	0f be       	out	0x3f, r0	; 63
    1f0a:	cd bf       	out	0x3d, r28	; 61
    1f0c:	df 91       	pop	r29
    1f0e:	cf 91       	pop	r28
    1f10:	1f 91       	pop	r17
    1f12:	0f 91       	pop	r16
    1f14:	ff 90       	pop	r15
    1f16:	ef 90       	pop	r14
    1f18:	df 90       	pop	r13
    1f1a:	cf 90       	pop	r12
    1f1c:	bf 90       	pop	r11
    1f1e:	af 90       	pop	r10
    1f20:	7f 90       	pop	r7
    1f22:	6f 90       	pop	r6
    1f24:	5f 90       	pop	r5
    1f26:	4f 90       	pop	r4
    1f28:	08 95       	ret

00001f2a <.L30>:
    1f2a:	89 81       	ldd	r24, Y+1	; 0x01
    1f2c:	9a 81       	ldd	r25, Y+2	; 0x02
    1f2e:	ab 81       	ldd	r26, Y+3	; 0x03
    1f30:	bc 81       	ldd	r27, Y+4	; 0x04
    1f32:	8d 83       	std	Y+5, r24	; 0x05
    1f34:	9e 83       	std	Y+6, r25	; 0x06
    1f36:	af 83       	std	Y+7, r26	; 0x07
    1f38:	b8 87       	std	Y+8, r27	; 0x08
    1f3a:	20 e0       	ldi	r18, 0x00	; 0
    1f3c:	30 e0       	ldi	r19, 0x00	; 0
    1f3e:	a9 01       	movw	r20, r18
    1f40:	bc 01       	movw	r22, r24
    1f42:	cd 01       	movw	r24, r26
    1f44:	0e 94 37 23 	call	0x466e	; 0x466e <__gesf2>
    1f48:	18 16       	cp	r1, r24
    1f4a:	0c f0       	brlt	.+2      	; 0x1f4e <L0^A+0x2>

00001f4c <L0^A>:
    1f4c:	e4 c0       	rjmp	.+456    	; 0x2116 <.L29>
    1f4e:	26 ef       	ldi	r18, 0xF6	; 246
    1f50:	38 e9       	ldi	r19, 0x98	; 152
    1f52:	48 ec       	ldi	r20, 0xC8	; 200
    1f54:	5d e3       	ldi	r21, 0x3D	; 61
    1f56:	6d 81       	ldd	r22, Y+5	; 0x05
    1f58:	7e 81       	ldd	r23, Y+6	; 0x06
    1f5a:	8f 81       	ldd	r24, Y+7	; 0x07
    1f5c:	98 85       	ldd	r25, Y+8	; 0x08
    1f5e:	0e 94 3c 23 	call	0x4678	; 0x4678 <__mulsf3>
    1f62:	20 e0       	ldi	r18, 0x00	; 0
    1f64:	30 e0       	ldi	r19, 0x00	; 0
    1f66:	48 ec       	ldi	r20, 0xC8	; 200
    1f68:	52 e4       	ldi	r21, 0x42	; 66
    1f6a:	6d 83       	std	Y+5, r22	; 0x05
    1f6c:	7e 83       	std	Y+6, r23	; 0x06
    1f6e:	8f 83       	std	Y+7, r24	; 0x07
    1f70:	98 87       	std	Y+8, r25	; 0x08
    1f72:	6d 81       	ldd	r22, Y+5	; 0x05
    1f74:	7e 81       	ldd	r23, Y+6	; 0x06
    1f76:	8f 81       	ldd	r24, Y+7	; 0x07
    1f78:	98 85       	ldd	r25, Y+8	; 0x08
    1f7a:	0e 94 6c 21 	call	0x42d8	; 0x42d8 <__addsf3>
    1f7e:	23 e7       	ldi	r18, 0x73	; 115
    1f80:	38 e6       	ldi	r19, 0x68	; 104
    1f82:	41 e8       	ldi	r20, 0x81	; 129
    1f84:	5f e3       	ldi	r21, 0x3F	; 63
    1f86:	6d 83       	std	Y+5, r22	; 0x05
    1f88:	7e 83       	std	Y+6, r23	; 0x06
    1f8a:	8f 83       	std	Y+7, r24	; 0x07
    1f8c:	98 87       	std	Y+8, r25	; 0x08
    1f8e:	6d 81       	ldd	r22, Y+5	; 0x05
    1f90:	7e 81       	ldd	r23, Y+6	; 0x06
    1f92:	8f 81       	ldd	r24, Y+7	; 0x07
    1f94:	98 85       	ldd	r25, Y+8	; 0x08
    1f96:	0e 94 3c 23 	call	0x4678	; 0x4678 <__mulsf3>
    1f9a:	5b 01       	movw	r10, r22
    1f9c:	6c 01       	movw	r12, r24
    1f9e:	20 e0       	ldi	r18, 0x00	; 0
    1fa0:	30 e0       	ldi	r19, 0x00	; 0
    1fa2:	48 ec       	ldi	r20, 0xC8	; 200
    1fa4:	52 e4       	ldi	r21, 0x42	; 66
    1fa6:	6d 83       	std	Y+5, r22	; 0x05
    1fa8:	be 82       	std	Y+6, r11	; 0x06
    1faa:	8f 83       	std	Y+7, r24	; 0x07
    1fac:	d8 86       	std	Y+8, r13	; 0x08
    1fae:	6d 81       	ldd	r22, Y+5	; 0x05
    1fb0:	7e 81       	ldd	r23, Y+6	; 0x06
    1fb2:	8f 81       	ldd	r24, Y+7	; 0x07
    1fb4:	98 85       	ldd	r25, Y+8	; 0x08
    1fb6:	0e 94 6b 21 	call	0x42d6	; 0x42d6 <__subsf3>
    1fba:	2f ea       	ldi	r18, 0xAF	; 175
    1fbc:	30 ed       	ldi	r19, 0xD0	; 208
    1fbe:	4f ea       	ldi	r20, 0xAF	; 175
    1fc0:	5e e3       	ldi	r21, 0x3E	; 62
    1fc2:	6d 83       	std	Y+5, r22	; 0x05
    1fc4:	7e 83       	std	Y+6, r23	; 0x06
    1fc6:	8f 83       	std	Y+7, r24	; 0x07
    1fc8:	98 87       	std	Y+8, r25	; 0x08
    1fca:	6d 81       	ldd	r22, Y+5	; 0x05
    1fcc:	7e 81       	ldd	r23, Y+6	; 0x06
    1fce:	8f 81       	ldd	r24, Y+7	; 0x07
    1fd0:	98 85       	ldd	r25, Y+8	; 0x08
    1fd2:	0e 94 dd 21 	call	0x43ba	; 0x43ba <__divsf3>
    1fd6:	6d 83       	std	Y+5, r22	; 0x05
    1fd8:	7e 83       	std	Y+6, r23	; 0x06
    1fda:	8f 83       	std	Y+7, r24	; 0x07
    1fdc:	98 87       	std	Y+8, r25	; 0x08
    1fde:	6d 81       	ldd	r22, Y+5	; 0x05
    1fe0:	7e 81       	ldd	r23, Y+6	; 0x06
    1fe2:	8f 81       	ldd	r24, Y+7	; 0x07
    1fe4:	98 85       	ldd	r25, Y+8	; 0x08
    1fe6:	0e 94 4f 22 	call	0x449e	; 0x449e <__fixsfsi>
    1fea:	7b 01       	movw	r14, r22
    1fec:	9f ef       	ldi	r25, 0xFF	; 255
    1fee:	e9 16       	cp	r14, r25
    1ff0:	f1 04       	cpc	r15, r1
    1ff2:	0c f0       	brlt	.+2      	; 0x1ff6 <L0^A+0x2>

00001ff4 <L0^A>:
    1ff4:	89 c0       	rjmp	.+274    	; 0x2108 <.L31>
    1ff6:	f7 fc       	sbrc	r15, 7
    1ff8:	8b c0       	rjmp	.+278    	; 0x2110 <.L32>

00001ffa <.L23>:
    1ffa:	f7 01       	movw	r30, r14
    1ffc:	ee 0f       	add	r30, r30
    1ffe:	ff 1f       	adc	r31, r31
    2000:	ee 0f       	add	r30, r30
    2002:	ff 1f       	adc	r31, r31
    2004:	e9 56       	subi	r30, 0x69	; 105
    2006:	ff 4f       	sbci	r31, 0xFF	; 255
    2008:	40 80       	ld	r4, Z
    200a:	51 80       	ldd	r5, Z+1	; 0x01
    200c:	62 80       	ldd	r6, Z+2	; 0x02
    200e:	73 80       	ldd	r7, Z+3	; 0x03
    2010:	c7 01       	movw	r24, r14
    2012:	0f 2c       	mov	r0, r15
    2014:	00 0c       	add	r0, r0
    2016:	aa 0b       	sbc	r26, r26
    2018:	bb 0b       	sbc	r27, r27
    201a:	8d 83       	std	Y+5, r24	; 0x05
    201c:	9e 83       	std	Y+6, r25	; 0x06
    201e:	af 83       	std	Y+7, r26	; 0x07
    2020:	b8 87       	std	Y+8, r27	; 0x08
    2022:	bc 01       	movw	r22, r24
    2024:	cd 01       	movw	r24, r26
    2026:	0e 94 87 22 	call	0x450e	; 0x450e <__floatsisf>
    202a:	2f ea       	ldi	r18, 0xAF	; 175
    202c:	30 ed       	ldi	r19, 0xD0	; 208
    202e:	4f ea       	ldi	r20, 0xAF	; 175
    2030:	5e e3       	ldi	r21, 0x3E	; 62
    2032:	6d 83       	std	Y+5, r22	; 0x05
    2034:	7e 83       	std	Y+6, r23	; 0x06
    2036:	8f 83       	std	Y+7, r24	; 0x07
    2038:	98 87       	std	Y+8, r25	; 0x08
    203a:	6d 81       	ldd	r22, Y+5	; 0x05
    203c:	7e 81       	ldd	r23, Y+6	; 0x06
    203e:	8f 81       	ldd	r24, Y+7	; 0x07
    2040:	98 85       	ldd	r25, Y+8	; 0x08
    2042:	0e 94 3c 23 	call	0x4678	; 0x4678 <__mulsf3>
    2046:	20 e0       	ldi	r18, 0x00	; 0
    2048:	30 e0       	ldi	r19, 0x00	; 0
    204a:	48 ec       	ldi	r20, 0xC8	; 200
    204c:	52 e4       	ldi	r21, 0x42	; 66
    204e:	6d 83       	std	Y+5, r22	; 0x05
    2050:	7e 83       	std	Y+6, r23	; 0x06
    2052:	8f 83       	std	Y+7, r24	; 0x07
    2054:	98 87       	std	Y+8, r25	; 0x08
    2056:	6d 81       	ldd	r22, Y+5	; 0x05
    2058:	7e 81       	ldd	r23, Y+6	; 0x06
    205a:	8f 81       	ldd	r24, Y+7	; 0x07
    205c:	98 85       	ldd	r25, Y+8	; 0x08
    205e:	0e 94 6c 21 	call	0x42d8	; 0x42d8 <__addsf3>
    2062:	9b 01       	movw	r18, r22
    2064:	ac 01       	movw	r20, r24
    2066:	ad 82       	std	Y+5, r10	; 0x05
    2068:	be 82       	std	Y+6, r11	; 0x06
    206a:	cf 82       	std	Y+7, r12	; 0x07
    206c:	d8 86       	std	Y+8, r13	; 0x08
    206e:	6d 81       	ldd	r22, Y+5	; 0x05
    2070:	7e 81       	ldd	r23, Y+6	; 0x06
    2072:	8f 81       	ldd	r24, Y+7	; 0x07
    2074:	98 85       	ldd	r25, Y+8	; 0x08
    2076:	0e 94 6b 21 	call	0x42d6	; 0x42d6 <__subsf3>
    207a:	5b 01       	movw	r10, r22
    207c:	6c 01       	movw	r12, r24
    207e:	f7 01       	movw	r30, r14
    2080:	ee 0f       	add	r30, r30
    2082:	ff 1f       	adc	r31, r31
    2084:	ee 0f       	add	r30, r30
    2086:	ff 1f       	adc	r31, r31
    2088:	e5 56       	subi	r30, 0x65	; 101
    208a:	ff 4f       	sbci	r31, 0xFF	; 255
    208c:	a3 01       	movw	r20, r6
    208e:	92 01       	movw	r18, r4
    2090:	60 81       	ld	r22, Z
    2092:	71 81       	ldd	r23, Z+1	; 0x01
    2094:	82 81       	ldd	r24, Z+2	; 0x02
    2096:	93 81       	ldd	r25, Z+3	; 0x03
    2098:	0e 94 6b 21 	call	0x42d6	; 0x42d6 <__subsf3>
    209c:	9b 01       	movw	r18, r22
    209e:	ac 01       	movw	r20, r24
    20a0:	ad 82       	std	Y+5, r10	; 0x05
    20a2:	be 82       	std	Y+6, r11	; 0x06
    20a4:	cf 82       	std	Y+7, r12	; 0x07
    20a6:	d8 86       	std	Y+8, r13	; 0x08
    20a8:	6d 81       	ldd	r22, Y+5	; 0x05
    20aa:	7e 81       	ldd	r23, Y+6	; 0x06
    20ac:	8f 81       	ldd	r24, Y+7	; 0x07
    20ae:	98 85       	ldd	r25, Y+8	; 0x08
    20b0:	0e 94 3c 23 	call	0x4678	; 0x4678 <__mulsf3>
    20b4:	2f ea       	ldi	r18, 0xAF	; 175
    20b6:	30 ed       	ldi	r19, 0xD0	; 208
    20b8:	4f ea       	ldi	r20, 0xAF	; 175
    20ba:	5e e3       	ldi	r21, 0x3E	; 62
    20bc:	6d 83       	std	Y+5, r22	; 0x05
    20be:	7e 83       	std	Y+6, r23	; 0x06
    20c0:	8f 83       	std	Y+7, r24	; 0x07
    20c2:	98 87       	std	Y+8, r25	; 0x08
    20c4:	6d 81       	ldd	r22, Y+5	; 0x05
    20c6:	7e 81       	ldd	r23, Y+6	; 0x06
    20c8:	8f 81       	ldd	r24, Y+7	; 0x07
    20ca:	98 85       	ldd	r25, Y+8	; 0x08
    20cc:	0e 94 dd 21 	call	0x43ba	; 0x43ba <__divsf3>
    20d0:	a3 01       	movw	r20, r6
    20d2:	92 01       	movw	r18, r4
    20d4:	6d 83       	std	Y+5, r22	; 0x05
    20d6:	7e 83       	std	Y+6, r23	; 0x06
    20d8:	8f 83       	std	Y+7, r24	; 0x07
    20da:	98 87       	std	Y+8, r25	; 0x08
    20dc:	6d 81       	ldd	r22, Y+5	; 0x05
    20de:	7e 81       	ldd	r23, Y+6	; 0x06
    20e0:	8f 81       	ldd	r24, Y+7	; 0x07
    20e2:	98 85       	ldd	r25, Y+8	; 0x08
    20e4:	0e 94 6c 21 	call	0x42d8	; 0x42d8 <__addsf3>
    20e8:	6d 83       	std	Y+5, r22	; 0x05
    20ea:	7e 83       	std	Y+6, r23	; 0x06
    20ec:	8f 83       	std	Y+7, r24	; 0x07
    20ee:	98 87       	std	Y+8, r25	; 0x08
    20f0:	6d 81       	ldd	r22, Y+5	; 0x05
    20f2:	7e 81       	ldd	r23, Y+6	; 0x06
    20f4:	8f 81       	ldd	r24, Y+7	; 0x07
    20f6:	98 85       	ldd	r25, Y+8	; 0x08
    20f8:	0e 94 4f 22 	call	0x449e	; 0x449e <__fixsfsi>
    20fc:	cb 01       	movw	r24, r22

000020fe <.L20>:
    20fe:	d8 01       	movw	r26, r16
    2100:	8d 93       	st	X+, r24
    2102:	9c 93       	st	X, r25
    2104:	81 e0       	ldi	r24, 0x01	; 1
    2106:	fc ce       	rjmp	.-520    	; 0x1f00 <.L18>

00002108 <.L31>:
    2108:	2e ef       	ldi	r18, 0xFE	; 254
    210a:	e2 2e       	mov	r14, r18
    210c:	f1 2c       	mov	r15, r1
    210e:	75 cf       	rjmp	.-278    	; 0x1ffa <.L23>

00002110 <.L32>:
    2110:	e1 2c       	mov	r14, r1
    2112:	f1 2c       	mov	r15, r1
    2114:	72 cf       	rjmp	.-284    	; 0x1ffa <.L23>

00002116 <.L29>:
    2116:	80 e0       	ldi	r24, 0x00	; 0
    2118:	90 e0       	ldi	r25, 0x00	; 0
    211a:	f1 cf       	rjmp	.-30     	; 0x20fe <.L20>

0000211c <temperature_job>:
    211c:	8f 92       	push	r8
    211e:	9f 92       	push	r9
    2120:	af 92       	push	r10
    2122:	bf 92       	push	r11
    2124:	cf 92       	push	r12
    2126:	df 92       	push	r13
    2128:	ef 92       	push	r14
    212a:	ff 92       	push	r15
    212c:	0f 93       	push	r16
    212e:	1f 93       	push	r17
    2130:	cf 93       	push	r28
    2132:	df 93       	push	r29
    2134:	cd b7       	in	r28, 0x3d	; 61
    2136:	de b7       	in	r29, 0x3e	; 62
    2138:	28 97       	sbiw	r28, 0x08	; 8
    213a:	0f b6       	in	r0, 0x3f	; 63
    213c:	f8 94       	cli
    213e:	de bf       	out	0x3e, r29	; 62
    2140:	0f be       	out	0x3f, r0	; 63
    2142:	cd bf       	out	0x3d, r28	; 61
    2144:	80 91 d1 05 	lds	r24, 0x05D1	; 0x8005d1 <sm0.0>
    2148:	81 11       	cpse	r24, r1
    214a:	1f c0       	rjmp	.+62     	; 0x218a <.L34>
    214c:	80 91 d2 05 	lds	r24, 0x05D2	; 0x8005d2 <sm0.1>
    2150:	90 91 d3 05 	lds	r25, 0x05D3	; 0x8005d3 <sm0.1+0x1>
    2154:	89 2b       	or	r24, r25
    2156:	09 f0       	breq	.+2      	; 0x215a <L0^A+0x2>

00002158 <L0^A>:
    2158:	52 c1       	rjmp	.+676    	; 0x23fe <.L35>
    215a:	80 91 ac 06 	lds	r24, 0x06AC	; 0x8006ac <mainflag>
    215e:	83 ff       	sbrs	r24, 3
    2160:	7f c1       	rjmp	.+766    	; 0x2460 <.L53>

00002162 <.L37>:
    2162:	80 e0       	ldi	r24, 0x00	; 0

00002164 <.L33>:
    2164:	28 96       	adiw	r28, 0x08	; 8
    2166:	0f b6       	in	r0, 0x3f	; 63
    2168:	f8 94       	cli
    216a:	de bf       	out	0x3e, r29	; 62
    216c:	0f be       	out	0x3f, r0	; 63
    216e:	cd bf       	out	0x3d, r28	; 61
    2170:	df 91       	pop	r29
    2172:	cf 91       	pop	r28
    2174:	1f 91       	pop	r17
    2176:	0f 91       	pop	r16
    2178:	ff 90       	pop	r15
    217a:	ef 90       	pop	r14
    217c:	df 90       	pop	r13
    217e:	cf 90       	pop	r12
    2180:	bf 90       	pop	r11
    2182:	af 90       	pop	r10
    2184:	9f 90       	pop	r9
    2186:	8f 90       	pop	r8
    2188:	08 95       	ret

0000218a <.L34>:
    218a:	9e 01       	movw	r18, r28
    218c:	2f 5f       	subi	r18, 0xFF	; 255
    218e:	3f 4f       	sbci	r19, 0xFF	; 255
    2190:	4e e1       	ldi	r20, 0x1E	; 30
    2192:	50 e0       	ldi	r21, 0x00	; 0
    2194:	65 ee       	ldi	r22, 0xE5	; 229
    2196:	75 e0       	ldi	r23, 0x05	; 5
    2198:	84 ed       	ldi	r24, 0xD4	; 212
    219a:	95 e0       	ldi	r25, 0x05	; 5
    219c:	0e 94 7e 01 	call	0x2fc	; 0x2fc <smoothAlg_nonblock>
    21a0:	88 23       	and	r24, r24
    21a2:	f9 f2       	breq	.-66     	; 0x2162 <.L37>
    21a4:	29 81       	ldd	r18, Y+1	; 0x01
    21a6:	3a 81       	ldd	r19, Y+2	; 0x02
    21a8:	4b 81       	ldd	r20, Y+3	; 0x03
    21aa:	5c 81       	ldd	r21, Y+4	; 0x04
    21ac:	2d 83       	std	Y+5, r18	; 0x05
    21ae:	3e 83       	std	Y+6, r19	; 0x06
    21b0:	4f 83       	std	Y+7, r20	; 0x07
    21b2:	58 87       	std	Y+8, r21	; 0x08
    21b4:	20 e0       	ldi	r18, 0x00	; 0
    21b6:	30 e0       	ldi	r19, 0x00	; 0
    21b8:	a9 01       	movw	r20, r18
    21ba:	6d 81       	ldd	r22, Y+5	; 0x05
    21bc:	7e 81       	ldd	r23, Y+6	; 0x06
    21be:	8f 81       	ldd	r24, Y+7	; 0x07
    21c0:	98 85       	ldd	r25, Y+8	; 0x08
    21c2:	0e 94 37 23 	call	0x466e	; 0x466e <__gesf2>
    21c6:	18 16       	cp	r1, r24
    21c8:	0c f0       	brlt	.+2      	; 0x21cc <L0^A+0x2>

000021ca <L0^A>:
    21ca:	69 c1       	rjmp	.+722    	; 0x249e <.L52>
    21cc:	26 ef       	ldi	r18, 0xF6	; 246
    21ce:	38 e9       	ldi	r19, 0x98	; 152
    21d0:	48 ec       	ldi	r20, 0xC8	; 200
    21d2:	5d e3       	ldi	r21, 0x3D	; 61
    21d4:	6d 81       	ldd	r22, Y+5	; 0x05
    21d6:	7e 81       	ldd	r23, Y+6	; 0x06
    21d8:	8f 81       	ldd	r24, Y+7	; 0x07
    21da:	98 85       	ldd	r25, Y+8	; 0x08
    21dc:	0e 94 3c 23 	call	0x4678	; 0x4678 <__mulsf3>
    21e0:	20 e0       	ldi	r18, 0x00	; 0
    21e2:	30 e0       	ldi	r19, 0x00	; 0
    21e4:	48 ec       	ldi	r20, 0xC8	; 200
    21e6:	52 e4       	ldi	r21, 0x42	; 66
    21e8:	6d 83       	std	Y+5, r22	; 0x05
    21ea:	7e 83       	std	Y+6, r23	; 0x06
    21ec:	8f 83       	std	Y+7, r24	; 0x07
    21ee:	98 87       	std	Y+8, r25	; 0x08
    21f0:	6d 81       	ldd	r22, Y+5	; 0x05
    21f2:	7e 81       	ldd	r23, Y+6	; 0x06
    21f4:	8f 81       	ldd	r24, Y+7	; 0x07
    21f6:	98 85       	ldd	r25, Y+8	; 0x08
    21f8:	0e 94 6c 21 	call	0x42d8	; 0x42d8 <__addsf3>
    21fc:	23 e7       	ldi	r18, 0x73	; 115
    21fe:	38 e6       	ldi	r19, 0x68	; 104
    2200:	41 e8       	ldi	r20, 0x81	; 129
    2202:	5f e3       	ldi	r21, 0x3F	; 63
    2204:	6d 83       	std	Y+5, r22	; 0x05
    2206:	7e 83       	std	Y+6, r23	; 0x06
    2208:	8f 83       	std	Y+7, r24	; 0x07
    220a:	98 87       	std	Y+8, r25	; 0x08
    220c:	6d 81       	ldd	r22, Y+5	; 0x05
    220e:	7e 81       	ldd	r23, Y+6	; 0x06
    2210:	8f 81       	ldd	r24, Y+7	; 0x07
    2212:	98 85       	ldd	r25, Y+8	; 0x08
    2214:	0e 94 3c 23 	call	0x4678	; 0x4678 <__mulsf3>
    2218:	6b 01       	movw	r12, r22
    221a:	7c 01       	movw	r14, r24
    221c:	20 e0       	ldi	r18, 0x00	; 0
    221e:	30 e0       	ldi	r19, 0x00	; 0
    2220:	48 ec       	ldi	r20, 0xC8	; 200
    2222:	52 e4       	ldi	r21, 0x42	; 66
    2224:	6d 83       	std	Y+5, r22	; 0x05
    2226:	de 82       	std	Y+6, r13	; 0x06
    2228:	8f 83       	std	Y+7, r24	; 0x07
    222a:	f8 86       	std	Y+8, r15	; 0x08
    222c:	6d 81       	ldd	r22, Y+5	; 0x05
    222e:	7e 81       	ldd	r23, Y+6	; 0x06
    2230:	8f 81       	ldd	r24, Y+7	; 0x07
    2232:	98 85       	ldd	r25, Y+8	; 0x08
    2234:	0e 94 6b 21 	call	0x42d6	; 0x42d6 <__subsf3>
    2238:	2f ea       	ldi	r18, 0xAF	; 175
    223a:	30 ed       	ldi	r19, 0xD0	; 208
    223c:	4f ea       	ldi	r20, 0xAF	; 175
    223e:	5e e3       	ldi	r21, 0x3E	; 62
    2240:	6d 83       	std	Y+5, r22	; 0x05
    2242:	7e 83       	std	Y+6, r23	; 0x06
    2244:	8f 83       	std	Y+7, r24	; 0x07
    2246:	98 87       	std	Y+8, r25	; 0x08
    2248:	6d 81       	ldd	r22, Y+5	; 0x05
    224a:	7e 81       	ldd	r23, Y+6	; 0x06
    224c:	8f 81       	ldd	r24, Y+7	; 0x07
    224e:	98 85       	ldd	r25, Y+8	; 0x08
    2250:	0e 94 dd 21 	call	0x43ba	; 0x43ba <__divsf3>
    2254:	6d 83       	std	Y+5, r22	; 0x05
    2256:	7e 83       	std	Y+6, r23	; 0x06
    2258:	8f 83       	std	Y+7, r24	; 0x07
    225a:	98 87       	std	Y+8, r25	; 0x08
    225c:	6d 81       	ldd	r22, Y+5	; 0x05
    225e:	7e 81       	ldd	r23, Y+6	; 0x06
    2260:	8f 81       	ldd	r24, Y+7	; 0x07
    2262:	98 85       	ldd	r25, Y+8	; 0x08
    2264:	0e 94 4f 22 	call	0x449e	; 0x449e <__fixsfsi>
    2268:	8b 01       	movw	r16, r22
    226a:	6f 3f       	cpi	r22, 0xFF	; 255
    226c:	71 05       	cpc	r23, r1
    226e:	0c f4       	brge	.+2      	; 0x2272 <L0^A+0x2>

00002270 <L0^A>:
    2270:	11 c1       	rjmp	.+546    	; 0x2494 <.L43>
    2272:	0e ef       	ldi	r16, 0xFE	; 254
    2274:	10 e0       	ldi	r17, 0x00	; 0

00002276 <.L44>:
    2276:	f8 01       	movw	r30, r16
    2278:	ee 0f       	add	r30, r30
    227a:	ff 1f       	adc	r31, r31
    227c:	ee 0f       	add	r30, r30
    227e:	ff 1f       	adc	r31, r31
    2280:	e9 56       	subi	r30, 0x69	; 105
    2282:	ff 4f       	sbci	r31, 0xFF	; 255
    2284:	80 80       	ld	r8, Z
    2286:	91 80       	ldd	r9, Z+1	; 0x01
    2288:	a2 80       	ldd	r10, Z+2	; 0x02
    228a:	b3 80       	ldd	r11, Z+3	; 0x03
    228c:	c8 01       	movw	r24, r16
    228e:	01 2e       	mov	r0, r17
    2290:	00 0c       	add	r0, r0
    2292:	aa 0b       	sbc	r26, r26
    2294:	bb 0b       	sbc	r27, r27
    2296:	8d 83       	std	Y+5, r24	; 0x05
    2298:	9e 83       	std	Y+6, r25	; 0x06
    229a:	af 83       	std	Y+7, r26	; 0x07
    229c:	b8 87       	std	Y+8, r27	; 0x08
    229e:	bc 01       	movw	r22, r24
    22a0:	cd 01       	movw	r24, r26
    22a2:	0e 94 87 22 	call	0x450e	; 0x450e <__floatsisf>
    22a6:	2f ea       	ldi	r18, 0xAF	; 175
    22a8:	30 ed       	ldi	r19, 0xD0	; 208
    22aa:	4f ea       	ldi	r20, 0xAF	; 175
    22ac:	5e e3       	ldi	r21, 0x3E	; 62
    22ae:	6d 83       	std	Y+5, r22	; 0x05
    22b0:	7e 83       	std	Y+6, r23	; 0x06
    22b2:	8f 83       	std	Y+7, r24	; 0x07
    22b4:	98 87       	std	Y+8, r25	; 0x08
    22b6:	6d 81       	ldd	r22, Y+5	; 0x05
    22b8:	7e 81       	ldd	r23, Y+6	; 0x06
    22ba:	8f 81       	ldd	r24, Y+7	; 0x07
    22bc:	98 85       	ldd	r25, Y+8	; 0x08
    22be:	0e 94 3c 23 	call	0x4678	; 0x4678 <__mulsf3>
    22c2:	20 e0       	ldi	r18, 0x00	; 0
    22c4:	30 e0       	ldi	r19, 0x00	; 0
    22c6:	48 ec       	ldi	r20, 0xC8	; 200
    22c8:	52 e4       	ldi	r21, 0x42	; 66
    22ca:	6d 83       	std	Y+5, r22	; 0x05
    22cc:	7e 83       	std	Y+6, r23	; 0x06
    22ce:	8f 83       	std	Y+7, r24	; 0x07
    22d0:	98 87       	std	Y+8, r25	; 0x08
    22d2:	6d 81       	ldd	r22, Y+5	; 0x05
    22d4:	7e 81       	ldd	r23, Y+6	; 0x06
    22d6:	8f 81       	ldd	r24, Y+7	; 0x07
    22d8:	98 85       	ldd	r25, Y+8	; 0x08
    22da:	0e 94 6c 21 	call	0x42d8	; 0x42d8 <__addsf3>
    22de:	9b 01       	movw	r18, r22
    22e0:	ac 01       	movw	r20, r24
    22e2:	cd 82       	std	Y+5, r12	; 0x05
    22e4:	de 82       	std	Y+6, r13	; 0x06
    22e6:	ef 82       	std	Y+7, r14	; 0x07
    22e8:	f8 86       	std	Y+8, r15	; 0x08
    22ea:	6d 81       	ldd	r22, Y+5	; 0x05
    22ec:	7e 81       	ldd	r23, Y+6	; 0x06
    22ee:	8f 81       	ldd	r24, Y+7	; 0x07
    22f0:	98 85       	ldd	r25, Y+8	; 0x08
    22f2:	0e 94 6b 21 	call	0x42d6	; 0x42d6 <__subsf3>
    22f6:	6b 01       	movw	r12, r22
    22f8:	7c 01       	movw	r14, r24
    22fa:	f8 01       	movw	r30, r16
    22fc:	ee 0f       	add	r30, r30
    22fe:	ff 1f       	adc	r31, r31
    2300:	ee 0f       	add	r30, r30
    2302:	ff 1f       	adc	r31, r31
    2304:	e5 56       	subi	r30, 0x65	; 101
    2306:	ff 4f       	sbci	r31, 0xFF	; 255
    2308:	a5 01       	movw	r20, r10
    230a:	94 01       	movw	r18, r8
    230c:	60 81       	ld	r22, Z
    230e:	71 81       	ldd	r23, Z+1	; 0x01
    2310:	82 81       	ldd	r24, Z+2	; 0x02
    2312:	93 81       	ldd	r25, Z+3	; 0x03
    2314:	0e 94 6b 21 	call	0x42d6	; 0x42d6 <__subsf3>
    2318:	9b 01       	movw	r18, r22
    231a:	ac 01       	movw	r20, r24
    231c:	cd 82       	std	Y+5, r12	; 0x05
    231e:	de 82       	std	Y+6, r13	; 0x06
    2320:	ef 82       	std	Y+7, r14	; 0x07
    2322:	f8 86       	std	Y+8, r15	; 0x08
    2324:	6d 81       	ldd	r22, Y+5	; 0x05
    2326:	7e 81       	ldd	r23, Y+6	; 0x06
    2328:	8f 81       	ldd	r24, Y+7	; 0x07
    232a:	98 85       	ldd	r25, Y+8	; 0x08
    232c:	0e 94 3c 23 	call	0x4678	; 0x4678 <__mulsf3>
    2330:	2f ea       	ldi	r18, 0xAF	; 175
    2332:	30 ed       	ldi	r19, 0xD0	; 208
    2334:	4f ea       	ldi	r20, 0xAF	; 175
    2336:	5e e3       	ldi	r21, 0x3E	; 62
    2338:	6d 83       	std	Y+5, r22	; 0x05
    233a:	7e 83       	std	Y+6, r23	; 0x06
    233c:	8f 83       	std	Y+7, r24	; 0x07
    233e:	98 87       	std	Y+8, r25	; 0x08
    2340:	6d 81       	ldd	r22, Y+5	; 0x05
    2342:	7e 81       	ldd	r23, Y+6	; 0x06
    2344:	8f 81       	ldd	r24, Y+7	; 0x07
    2346:	98 85       	ldd	r25, Y+8	; 0x08
    2348:	0e 94 dd 21 	call	0x43ba	; 0x43ba <__divsf3>
    234c:	a5 01       	movw	r20, r10
    234e:	94 01       	movw	r18, r8
    2350:	6d 83       	std	Y+5, r22	; 0x05
    2352:	7e 83       	std	Y+6, r23	; 0x06
    2354:	8f 83       	std	Y+7, r24	; 0x07
    2356:	98 87       	std	Y+8, r25	; 0x08
    2358:	6d 81       	ldd	r22, Y+5	; 0x05
    235a:	7e 81       	ldd	r23, Y+6	; 0x06
    235c:	8f 81       	ldd	r24, Y+7	; 0x07
    235e:	98 85       	ldd	r25, Y+8	; 0x08
    2360:	0e 94 6c 21 	call	0x42d8	; 0x42d8 <__addsf3>
    2364:	6d 83       	std	Y+5, r22	; 0x05
    2366:	7e 83       	std	Y+6, r23	; 0x06
    2368:	8f 83       	std	Y+7, r24	; 0x07
    236a:	98 87       	std	Y+8, r25	; 0x08
    236c:	6d 81       	ldd	r22, Y+5	; 0x05
    236e:	7e 81       	ldd	r23, Y+6	; 0x06
    2370:	8f 81       	ldd	r24, Y+7	; 0x07
    2372:	98 85       	ldd	r25, Y+8	; 0x08
    2374:	0e 94 4f 22 	call	0x449e	; 0x449e <__fixsfsi>
    2378:	cb 01       	movw	r24, r22

0000237a <.L41>:
    237a:	90 93 22 06 	sts	0x0622, r25	; 0x800622 <TCtemperature+0x1>
    237e:	80 93 21 06 	sts	0x0621, r24	; 0x800621 <TCtemperature>
    2382:	20 91 f2 06 	lds	r18, 0x06F2	; 0x8006f2 <pgrmode>
    2386:	20 fd       	sbrc	r18, 0
    2388:	36 c0       	rjmp	.+108    	; 0x23f6 <.L46>
    238a:	9c 01       	movw	r18, r24
    238c:	99 0f       	add	r25, r25
    238e:	44 0b       	sbc	r20, r20
    2390:	55 0b       	sbc	r21, r21
    2392:	2d 83       	std	Y+5, r18	; 0x05
    2394:	3e 83       	std	Y+6, r19	; 0x06
    2396:	4f 83       	std	Y+7, r20	; 0x07
    2398:	58 87       	std	Y+8, r21	; 0x08
    239a:	ca 01       	movw	r24, r20
    239c:	b9 01       	movw	r22, r18
    239e:	0e 94 87 22 	call	0x450e	; 0x450e <__floatsisf>
    23a2:	26 e6       	ldi	r18, 0x66	; 102
    23a4:	36 e6       	ldi	r19, 0x66	; 102
    23a6:	46 ee       	ldi	r20, 0xE6	; 230
    23a8:	5f e3       	ldi	r21, 0x3F	; 63
    23aa:	6d 83       	std	Y+5, r22	; 0x05
    23ac:	7e 83       	std	Y+6, r23	; 0x06
    23ae:	8f 83       	std	Y+7, r24	; 0x07
    23b0:	98 87       	std	Y+8, r25	; 0x08
    23b2:	6d 81       	ldd	r22, Y+5	; 0x05
    23b4:	7e 81       	ldd	r23, Y+6	; 0x06
    23b6:	8f 81       	ldd	r24, Y+7	; 0x07
    23b8:	98 85       	ldd	r25, Y+8	; 0x08
    23ba:	0e 94 3c 23 	call	0x4678	; 0x4678 <__mulsf3>
    23be:	20 e0       	ldi	r18, 0x00	; 0
    23c0:	30 e0       	ldi	r19, 0x00	; 0
    23c2:	40 e0       	ldi	r20, 0x00	; 0
    23c4:	52 e4       	ldi	r21, 0x42	; 66
    23c6:	6d 83       	std	Y+5, r22	; 0x05
    23c8:	7e 83       	std	Y+6, r23	; 0x06
    23ca:	8f 83       	std	Y+7, r24	; 0x07
    23cc:	98 87       	std	Y+8, r25	; 0x08
    23ce:	6d 81       	ldd	r22, Y+5	; 0x05
    23d0:	7e 81       	ldd	r23, Y+6	; 0x06
    23d2:	8f 81       	ldd	r24, Y+7	; 0x07
    23d4:	98 85       	ldd	r25, Y+8	; 0x08
    23d6:	0e 94 6c 21 	call	0x42d8	; 0x42d8 <__addsf3>
    23da:	6d 83       	std	Y+5, r22	; 0x05
    23dc:	7e 83       	std	Y+6, r23	; 0x06
    23de:	8f 83       	std	Y+7, r24	; 0x07
    23e0:	98 87       	std	Y+8, r25	; 0x08
    23e2:	6d 81       	ldd	r22, Y+5	; 0x05
    23e4:	7e 81       	ldd	r23, Y+6	; 0x06
    23e6:	8f 81       	ldd	r24, Y+7	; 0x07
    23e8:	98 85       	ldd	r25, Y+8	; 0x08
    23ea:	0e 94 4f 22 	call	0x449e	; 0x449e <__fixsfsi>
    23ee:	70 93 22 06 	sts	0x0622, r23	; 0x800622 <TCtemperature+0x1>
    23f2:	60 93 21 06 	sts	0x0621, r22	; 0x800621 <TCtemperature>

000023f6 <.L46>:
    23f6:	10 92 d1 05 	sts	0x05D1, r1	; 0x8005d1 <sm0.0>
    23fa:	81 e0       	ldi	r24, 0x01	; 1
    23fc:	b3 ce       	rjmp	.-666    	; 0x2164 <.L33>

000023fe <.L35>:
    23fe:	80 91 ae 06 	lds	r24, 0x06AE	; 0x8006ae <isr_flag>
    2402:	86 95       	lsr	r24
    2404:	81 70       	andi	r24, 0x01	; 1
    2406:	81 30       	cpi	r24, 0x01	; 1
    2408:	09 f0       	breq	.+2      	; 0x240c <L0^A+0x2>

0000240a <L0^A>:
    240a:	ab ce       	rjmp	.-682    	; 0x2162 <.L37>
    240c:	90 91 ae 06 	lds	r25, 0x06AE	; 0x8006ae <isr_flag>
    2410:	9d 7f       	andi	r25, 0xFD	; 253
    2412:	90 93 ae 06 	sts	0x06AE, r25	; 0x8006ae <isr_flag>
    2416:	90 91 ac 06 	lds	r25, 0x06AC	; 0x8006ac <mainflag>
    241a:	97 7f       	andi	r25, 0xF7	; 247
    241c:	90 93 ac 06 	sts	0x06AC, r25	; 0x8006ac <mainflag>
    2420:	10 92 d3 05 	sts	0x05D3, r1	; 0x8005d3 <sm0.1+0x1>
    2424:	10 92 d2 05 	sts	0x05D2, r1	; 0x8005d2 <sm0.1>
    2428:	94 b1       	in	r25, 0x04	; 4
    242a:	25 b1       	in	r18, 0x05	; 5
    242c:	40 91 6e 06 	lds	r20, 0x066E	; 0x80066e <job_captureTemperature+0x1>
    2430:	50 91 6f 06 	lds	r21, 0x066F	; 0x80066f <job_captureTemperature+0x2>
    2434:	fa 01       	movw	r30, r20
    2436:	ee 0f       	add	r30, r30
    2438:	ff 1f       	adc	r31, r31
    243a:	eb 51       	subi	r30, 0x1B	; 27
    243c:	fa 4f       	sbci	r31, 0xFA	; 250
    243e:	30 e0       	ldi	r19, 0x00	; 0
    2440:	32 2f       	mov	r19, r18
    2442:	22 27       	eor	r18, r18
    2444:	29 0f       	add	r18, r25
    2446:	31 1d       	adc	r19, r1
    2448:	31 83       	std	Z+1, r19	; 0x01
    244a:	20 83       	st	Z, r18
    244c:	4f 5f       	subi	r20, 0xFF	; 255
    244e:	5f 4f       	sbci	r21, 0xFF	; 255
    2450:	4e 31       	cpi	r20, 0x1E	; 30
    2452:	51 05       	cpc	r21, r1
    2454:	c0 f4       	brcc	.+48     	; 0x2486 <.L39>
    2456:	50 93 6f 06 	sts	0x066F, r21	; 0x80066f <job_captureTemperature+0x2>
    245a:	40 93 6e 06 	sts	0x066E, r20	; 0x80066e <job_captureTemperature+0x1>
    245e:	81 ce       	rjmp	.-766    	; 0x2162 <.L37>

00002460 <.L53>:
    2460:	88 60       	ori	r24, 0x08	; 8
    2462:	80 93 ac 06 	sts	0x06AC, r24	; 0x8006ac <mainflag>
    2466:	81 e0       	ldi	r24, 0x01	; 1
    2468:	0e 94 7f 0d 	call	0x1afe	; 0x1afe <ADC_set_reference>
    246c:	82 e0       	ldi	r24, 0x02	; 2
    246e:	0e 94 b7 0d 	call	0x1b6e	; 0x1b6e <ADC_start_conv>
    2472:	80 91 d2 05 	lds	r24, 0x05D2	; 0x8005d2 <sm0.1>
    2476:	90 91 d3 05 	lds	r25, 0x05D3	; 0x8005d3 <sm0.1+0x1>
    247a:	01 96       	adiw	r24, 0x01	; 1
    247c:	90 93 d3 05 	sts	0x05D3, r25	; 0x8005d3 <sm0.1+0x1>
    2480:	80 93 d2 05 	sts	0x05D2, r24	; 0x8005d2 <sm0.1>
    2484:	6e ce       	rjmp	.-804    	; 0x2162 <.L37>

00002486 <.L39>:
    2486:	10 92 6f 06 	sts	0x066F, r1	; 0x80066f <job_captureTemperature+0x2>
    248a:	10 92 6e 06 	sts	0x066E, r1	; 0x80066e <job_captureTemperature+0x1>
    248e:	80 93 d1 05 	sts	0x05D1, r24	; 0x8005d1 <sm0.0>
    2492:	67 ce       	rjmp	.-818    	; 0x2162 <.L37>

00002494 <.L43>:
    2494:	77 ff       	sbrs	r23, 7
    2496:	ef ce       	rjmp	.-546    	; 0x2276 <.L44>
    2498:	00 e0       	ldi	r16, 0x00	; 0
    249a:	10 e0       	ldi	r17, 0x00	; 0
    249c:	ec ce       	rjmp	.-552    	; 0x2276 <.L44>

0000249e <.L52>:
    249e:	80 e0       	ldi	r24, 0x00	; 0
    24a0:	90 e0       	ldi	r25, 0x00	; 0
    24a2:	6b cf       	rjmp	.-298    	; 0x237a <.L41>

000024a4 <InitSPI_MASTER>:
    24a4:	87 b3       	in	r24, 0x17	; 23
    24a6:	80 6b       	ori	r24, 0xB0	; 176
    24a8:	87 bb       	out	0x17, r24	; 23
    24aa:	87 e1       	ldi	r24, 0x17	; 23
    24ac:	8d b9       	out	0x0d, r24	; 13
    24ae:	08 95       	ret

000024b0 <SPI_MSTR_ExchangeData>:
    24b0:	8f b9       	out	0x0f, r24	; 15

000024b2 <.L4>:
    24b2:	77 9b       	sbis	0x0e, 7	; 14
    24b4:	fe cf       	rjmp	.-4      	; 0x24b2 <.L4>
    24b6:	8f b1       	in	r24, 0x0f	; 15
    24b8:	08 95       	ret

000024ba <MAX6675_getFloatTmprCelsius>:
    24ba:	cf 93       	push	r28
    24bc:	df 93       	push	r29
    24be:	00 d0       	rcall	.+0      	; 0x24c0 <L0^A>

000024c0 <L0^A>:
    24c0:	00 d0       	rcall	.+0      	; 0x24c2 <L0^A>

000024c2 <L0^A>:
    24c2:	cd b7       	in	r28, 0x3d	; 61
    24c4:	de b7       	in	r29, 0x3e	; 62
    24c6:	97 98       	cbi	0x12, 7	; 18
    24c8:	25 e0       	ldi	r18, 0x05	; 5

000024ca <.L1^B1>:
    24ca:	2a 95       	dec	r18
    24cc:	f1 f7       	brne	.-4      	; 0x24ca <.L1^B1>
    24ce:	00 00       	nop
    24d0:	80 e0       	ldi	r24, 0x00	; 0
    24d2:	0e 94 58 12 	call	0x24b0	; 0x24b0 <SPI_MSTR_ExchangeData>
    24d6:	89 83       	std	Y+1, r24	; 0x01
    24d8:	80 e0       	ldi	r24, 0x00	; 0
    24da:	0e 94 58 12 	call	0x24b0	; 0x24b0 <SPI_MSTR_ExchangeData>
    24de:	3a e1       	ldi	r19, 0x1A	; 26

000024e0 <.L1^B2>:
    24e0:	3a 95       	dec	r19
    24e2:	f1 f7       	brne	.-4      	; 0x24e0 <.L1^B2>
    24e4:	00 c0       	rjmp	.+0      	; 0x24e6 <L0^A>

000024e6 <L0^A>:
    24e6:	97 9a       	sbi	0x12, 7	; 18
    24e8:	82 fd       	sbrc	r24, 2
    24ea:	3e c0       	rjmp	.+124    	; 0x2568 <.L3>
    24ec:	49 81       	ldd	r20, Y+1	; 0x01
    24ee:	94 2f       	mov	r25, r20
    24f0:	96 95       	lsr	r25
    24f2:	87 95       	ror	r24
    24f4:	96 95       	lsr	r25
    24f6:	87 95       	ror	r24
    24f8:	96 95       	lsr	r25
    24fa:	87 95       	ror	r24
    24fc:	9c 01       	movw	r18, r24
    24fe:	40 e0       	ldi	r20, 0x00	; 0
    2500:	50 e0       	ldi	r21, 0x00	; 0
    2502:	29 83       	std	Y+1, r18	; 0x01
    2504:	3a 83       	std	Y+2, r19	; 0x02
    2506:	4b 83       	std	Y+3, r20	; 0x03
    2508:	5c 83       	std	Y+4, r21	; 0x04
    250a:	ca 01       	movw	r24, r20
    250c:	b9 01       	movw	r22, r18
    250e:	0e 94 85 22 	call	0x450a	; 0x450a <__floatunsisf>
    2512:	20 e0       	ldi	r18, 0x00	; 0
    2514:	30 ef       	ldi	r19, 0xF0	; 240
    2516:	4f e7       	ldi	r20, 0x7F	; 127
    2518:	54 e4       	ldi	r21, 0x44	; 68
    251a:	69 83       	std	Y+1, r22	; 0x01
    251c:	7a 83       	std	Y+2, r23	; 0x02
    251e:	8b 83       	std	Y+3, r24	; 0x03
    2520:	9c 83       	std	Y+4, r25	; 0x04
    2522:	69 81       	ldd	r22, Y+1	; 0x01
    2524:	7a 81       	ldd	r23, Y+2	; 0x02
    2526:	8b 81       	ldd	r24, Y+3	; 0x03
    2528:	9c 81       	ldd	r25, Y+4	; 0x04
    252a:	0e 94 3c 23 	call	0x4678	; 0x4678 <__mulsf3>
    252e:	20 e0       	ldi	r18, 0x00	; 0
    2530:	30 ef       	ldi	r19, 0xF0	; 240
    2532:	4f e7       	ldi	r20, 0x7F	; 127
    2534:	55 e4       	ldi	r21, 0x45	; 69
    2536:	69 83       	std	Y+1, r22	; 0x01
    2538:	7a 83       	std	Y+2, r23	; 0x02
    253a:	8b 83       	std	Y+3, r24	; 0x03
    253c:	9c 83       	std	Y+4, r25	; 0x04
    253e:	69 81       	ldd	r22, Y+1	; 0x01
    2540:	7a 81       	ldd	r23, Y+2	; 0x02
    2542:	8b 81       	ldd	r24, Y+3	; 0x03
    2544:	9c 81       	ldd	r25, Y+4	; 0x04
    2546:	0e 94 dd 21 	call	0x43ba	; 0x43ba <__divsf3>

0000254a <.L1>:
    254a:	69 83       	std	Y+1, r22	; 0x01
    254c:	7a 83       	std	Y+2, r23	; 0x02
    254e:	8b 83       	std	Y+3, r24	; 0x03
    2550:	9c 83       	std	Y+4, r25	; 0x04
    2552:	69 81       	ldd	r22, Y+1	; 0x01
    2554:	7a 81       	ldd	r23, Y+2	; 0x02
    2556:	8b 81       	ldd	r24, Y+3	; 0x03
    2558:	9c 81       	ldd	r25, Y+4	; 0x04
    255a:	0f 90       	pop	r0
    255c:	0f 90       	pop	r0
    255e:	0f 90       	pop	r0
    2560:	0f 90       	pop	r0
    2562:	df 91       	pop	r29
    2564:	cf 91       	pop	r28
    2566:	08 95       	ret

00002568 <.L3>:
    2568:	60 e0       	ldi	r22, 0x00	; 0
    256a:	70 e0       	ldi	r23, 0x00	; 0
    256c:	80 e8       	ldi	r24, 0x80	; 128
    256e:	9f eb       	ldi	r25, 0xBF	; 191
    2570:	ec cf       	rjmp	.-40     	; 0x254a <.L1>

00002572 <MAX6675_get12bitsTemp>:
    2572:	cf 93       	push	r28
    2574:	df 93       	push	r29
    2576:	97 98       	cbi	0x12, 7	; 18
    2578:	85 e0       	ldi	r24, 0x05	; 5

0000257a <.L1^B3>:
    257a:	8a 95       	dec	r24
    257c:	f1 f7       	brne	.-4      	; 0x257a <.L1^B3>
    257e:	00 00       	nop
    2580:	c6 b3       	in	r28, 0x16	; 22
    2582:	c5 fb       	bst	r28, 5
    2584:	cc 27       	eor	r28, r28
    2586:	c0 f9       	bld	r28, 0
    2588:	c1 95       	neg	r28
    258a:	6e 9a       	sbi	0x0d, 6	; 13
    258c:	8c 2f       	mov	r24, r28
    258e:	0e 94 58 12 	call	0x24b0	; 0x24b0 <SPI_MSTR_ExchangeData>
    2592:	d8 2f       	mov	r29, r24
    2594:	8c 2f       	mov	r24, r28
    2596:	0e 94 58 12 	call	0x24b0	; 0x24b0 <SPI_MSTR_ExchangeData>
    259a:	9a e1       	ldi	r25, 0x1A	; 26

0000259c <.L1^B4>:
    259c:	9a 95       	dec	r25
    259e:	f1 f7       	brne	.-4      	; 0x259c <.L1^B4>
    25a0:	00 c0       	rjmp	.+0      	; 0x25a2 <L0^A>

000025a2 <L0^A>:
    25a2:	6e 98       	cbi	0x0d, 6	; 13
    25a4:	97 9a       	sbi	0x12, 7	; 18
    25a6:	28 2f       	mov	r18, r24
    25a8:	30 e0       	ldi	r19, 0x00	; 0
    25aa:	82 fd       	sbrc	r24, 2
    25ac:	0b c0       	rjmp	.+22     	; 0x25c4 <.L7>
    25ae:	c9 01       	movw	r24, r18
    25b0:	9d 2b       	or	r25, r29
    25b2:	96 95       	lsr	r25
    25b4:	87 95       	ror	r24
    25b6:	96 95       	lsr	r25
    25b8:	87 95       	ror	r24
    25ba:	96 95       	lsr	r25
    25bc:	87 95       	ror	r24

000025be <.L5>:
    25be:	df 91       	pop	r29
    25c0:	cf 91       	pop	r28
    25c2:	08 95       	ret

000025c4 <.L7>:
    25c4:	8f ef       	ldi	r24, 0xFF	; 255
    25c6:	9f ef       	ldi	r25, 0xFF	; 255
    25c8:	fa cf       	rjmp	.-12     	; 0x25be <.L5>

000025ca <disp7s_setup>:
    25ca:	80 93 2a 06 	sts	0x062A, r24	; 0x80062a <disp7s_num_total>
    25ce:	70 93 29 06 	sts	0x0629, r23	; 0x800629 <PORTWxDISPLAY7S_DATA+0x1>
    25d2:	60 93 28 06 	sts	0x0628, r22	; 0x800628 <PORTWxDISPLAY7S_DATA>
    25d6:	50 93 27 06 	sts	0x0627, r21	; 0x800627 <disp7s_data+0x1>
    25da:	40 93 26 06 	sts	0x0626, r20	; 0x800626 <disp7s_data>
    25de:	30 93 25 06 	sts	0x0625, r19	; 0x800625 <disp7s_mux+0x1>
    25e2:	20 93 24 06 	sts	0x0624, r18	; 0x800624 <disp7s_mux>
    25e6:	08 95       	ret

000025e8 <disp7s_job>:
    25e8:	80 91 23 06 	lds	r24, 0x0623	; 0x800623 <q.0>
    25ec:	81 50       	subi	r24, 0x01	; 1
    25ee:	87 ff       	sbrs	r24, 7
    25f0:	03 c0       	rjmp	.+6      	; 0x25f8 <.L4>
    25f2:	80 91 2a 06 	lds	r24, 0x062A	; 0x80062a <disp7s_num_total>
    25f6:	81 50       	subi	r24, 0x01	; 1

000025f8 <.L4>:
    25f8:	24 e0       	ldi	r18, 0x04	; 4
    25fa:	82 02       	muls	r24, r18
    25fc:	c0 01       	movw	r24, r0
    25fe:	11 24       	eor	r1, r1
    2600:	e0 91 24 06 	lds	r30, 0x0624	; 0x800624 <disp7s_mux>
    2604:	f0 91 25 06 	lds	r31, 0x0625	; 0x800625 <disp7s_mux+0x1>
    2608:	e8 0f       	add	r30, r24
    260a:	f9 1f       	adc	r31, r25
    260c:	01 90       	ld	r0, Z+
    260e:	f0 81       	ld	r31, Z
    2610:	e0 2d       	mov	r30, r0
    2612:	09 95       	icall
    2614:	80 91 23 06 	lds	r24, 0x0623	; 0x800623 <q.0>
    2618:	08 2e       	mov	r0, r24
    261a:	00 0c       	add	r0, r0
    261c:	99 0b       	sbc	r25, r25
    261e:	a0 91 28 06 	lds	r26, 0x0628	; 0x800628 <PORTWxDISPLAY7S_DATA>
    2622:	b0 91 29 06 	lds	r27, 0x0629	; 0x800629 <PORTWxDISPLAY7S_DATA+0x1>
    2626:	e0 91 26 06 	lds	r30, 0x0626	; 0x800626 <disp7s_data>
    262a:	f0 91 27 06 	lds	r31, 0x0627	; 0x800627 <disp7s_data+0x1>
    262e:	e8 0f       	add	r30, r24
    2630:	f9 1f       	adc	r31, r25
    2632:	20 81       	ld	r18, Z
    2634:	2c 93       	st	X, r18
    2636:	88 0f       	add	r24, r24
    2638:	99 1f       	adc	r25, r25
    263a:	88 0f       	add	r24, r24
    263c:	99 1f       	adc	r25, r25
    263e:	e0 91 24 06 	lds	r30, 0x0624	; 0x800624 <disp7s_mux>
    2642:	f0 91 25 06 	lds	r31, 0x0625	; 0x800625 <disp7s_mux+0x1>
    2646:	e8 0f       	add	r30, r24
    2648:	f9 1f       	adc	r31, r25
    264a:	02 80       	ldd	r0, Z+2	; 0x02
    264c:	f3 81       	ldd	r31, Z+3	; 0x03
    264e:	e0 2d       	mov	r30, r0
    2650:	09 95       	icall
    2652:	80 91 23 06 	lds	r24, 0x0623	; 0x800623 <q.0>
    2656:	8f 5f       	subi	r24, 0xFF	; 255
    2658:	80 93 23 06 	sts	0x0623, r24	; 0x800623 <q.0>
    265c:	08 2e       	mov	r0, r24
    265e:	00 0c       	add	r0, r0
    2660:	99 0b       	sbc	r25, r25
    2662:	20 91 2a 06 	lds	r18, 0x062A	; 0x80062a <disp7s_num_total>
    2666:	30 e0       	ldi	r19, 0x00	; 0
    2668:	82 17       	cp	r24, r18
    266a:	93 07       	cpc	r25, r19
    266c:	09 f0       	breq	.+2      	; 0x2670 <.L6>
    266e:	08 95       	ret

00002670 <.L6>:
    2670:	10 92 23 06 	sts	0x0623, r1	; 0x800623 <q.0>
    2674:	08 95       	ret

00002676 <disp7s_fix_upsidedown_display>:
    2676:	fc 01       	movw	r30, r24
    2678:	40 81       	ld	r20, Z
    267a:	24 2f       	mov	r18, r20
    267c:	30 e0       	ldi	r19, 0x00	; 0
    267e:	c9 01       	movw	r24, r18
    2680:	95 95       	asr	r25
    2682:	87 95       	ror	r24
    2684:	95 95       	asr	r25
    2686:	87 95       	ror	r24
    2688:	84 70       	andi	r24, 0x04	; 4
    268a:	22 0f       	add	r18, r18
    268c:	33 1f       	adc	r19, r19
    268e:	22 0f       	add	r18, r18
    2690:	33 1f       	adc	r19, r19
    2692:	20 71       	andi	r18, 0x10	; 16
    2694:	82 2b       	or	r24, r18
    2696:	4b 7e       	andi	r20, 0xEB	; 235
    2698:	84 2b       	or	r24, r20
    269a:	80 83       	st	Z, r24
    269c:	08 95       	ret

0000269e <disp7s_fix_all_upsidedown_display>:
    269e:	eb e2       	ldi	r30, 0x2B	; 43
    26a0:	f6 e0       	ldi	r31, 0x06	; 6
    26a2:	42 81       	ldd	r20, Z+2	; 0x02
    26a4:	24 2f       	mov	r18, r20
    26a6:	30 e0       	ldi	r19, 0x00	; 0
    26a8:	c9 01       	movw	r24, r18
    26aa:	95 95       	asr	r25
    26ac:	87 95       	ror	r24
    26ae:	95 95       	asr	r25
    26b0:	87 95       	ror	r24
    26b2:	84 70       	andi	r24, 0x04	; 4
    26b4:	22 0f       	add	r18, r18
    26b6:	33 1f       	adc	r19, r19
    26b8:	22 0f       	add	r18, r18
    26ba:	33 1f       	adc	r19, r19
    26bc:	20 71       	andi	r18, 0x10	; 16
    26be:	82 2b       	or	r24, r18
    26c0:	4b 7e       	andi	r20, 0xEB	; 235
    26c2:	84 2b       	or	r24, r20
    26c4:	82 83       	std	Z+2, r24	; 0x02
    26c6:	46 81       	ldd	r20, Z+6	; 0x06
    26c8:	24 2f       	mov	r18, r20
    26ca:	30 e0       	ldi	r19, 0x00	; 0
    26cc:	c9 01       	movw	r24, r18
    26ce:	95 95       	asr	r25
    26d0:	87 95       	ror	r24
    26d2:	95 95       	asr	r25
    26d4:	87 95       	ror	r24
    26d6:	84 70       	andi	r24, 0x04	; 4
    26d8:	22 0f       	add	r18, r18
    26da:	33 1f       	adc	r19, r19
    26dc:	22 0f       	add	r18, r18
    26de:	33 1f       	adc	r19, r19
    26e0:	20 71       	andi	r18, 0x10	; 16
    26e2:	82 2b       	or	r24, r18
    26e4:	4b 7e       	andi	r20, 0xEB	; 235
    26e6:	84 2b       	or	r24, r20
    26e8:	86 83       	std	Z+6, r24	; 0x06
    26ea:	08 95       	ret

000026ec <disp7s_blank_displays>:
    26ec:	9c 01       	movw	r18, r24
    26ee:	14 16       	cp	r1, r20
    26f0:	5c f4       	brge	.+22     	; 0x2708 <.L4>
    26f2:	46 0f       	add	r20, r22

000026f4 <.L6>:
    26f4:	86 2f       	mov	r24, r22
    26f6:	6f 5f       	subi	r22, 0xFF	; 255
    26f8:	f9 01       	movw	r30, r18
    26fa:	e8 0f       	add	r30, r24
    26fc:	f1 1d       	adc	r31, r1
    26fe:	87 fd       	sbrc	r24, 7
    2700:	fa 95       	dec	r31
    2702:	10 82       	st	Z, r1
    2704:	64 13       	cpse	r22, r20
    2706:	f6 cf       	rjmp	.-20     	; 0x26f4 <.L6>

00002708 <.L4>:
    2708:	08 95       	ret

0000270a <disp7s_update_data_array>:
    270a:	14 16       	cp	r1, r20
    270c:	6c f4       	brge	.+26     	; 0x2728 <.L8>
    270e:	dc 01       	movw	r26, r24
    2710:	46 0f       	add	r20, r22

00002712 <.L10>:
    2712:	e6 2f       	mov	r30, r22
    2714:	6f 5f       	subi	r22, 0xFF	; 255
    2716:	8d 91       	ld	r24, X+
    2718:	0e 2e       	mov	r0, r30
    271a:	00 0c       	add	r0, r0
    271c:	ff 0b       	sbc	r31, r31
    271e:	e5 5d       	subi	r30, 0xD5	; 213
    2720:	f9 4f       	sbci	r31, 0xF9	; 249
    2722:	80 83       	st	Z, r24
    2724:	64 13       	cpse	r22, r20
    2726:	f5 cf       	rjmp	.-22     	; 0x2712 <.L10>

00002728 <.L8>:
    2728:	08 95       	ret

0000272a <disp7s_save_data_array>:
    272a:	fc 01       	movw	r30, r24
    272c:	86 2f       	mov	r24, r22
    272e:	06 2e       	mov	r0, r22
    2730:	00 0c       	add	r0, r0
    2732:	99 0b       	sbc	r25, r25
    2734:	16 16       	cp	r1, r22
    2736:	64 f5       	brge	.+88     	; 0x2790 <.L12>
    2738:	20 91 2b 06 	lds	r18, 0x062B	; 0x80062b <disp7s_data_array>
    273c:	20 83       	st	Z, r18
    273e:	81 30       	cpi	r24, 0x01	; 1
    2740:	91 05       	cpc	r25, r1
    2742:	31 f1       	breq	.+76     	; 0x2790 <.L12>
    2744:	20 91 2c 06 	lds	r18, 0x062C	; 0x80062c <disp7s_data_array+0x1>
    2748:	21 83       	std	Z+1, r18	; 0x01
    274a:	82 30       	cpi	r24, 0x02	; 2
    274c:	91 05       	cpc	r25, r1
    274e:	01 f1       	breq	.+64     	; 0x2790 <.L12>
    2750:	20 91 2d 06 	lds	r18, 0x062D	; 0x80062d <disp7s_data_array+0x2>
    2754:	22 83       	std	Z+2, r18	; 0x02
    2756:	83 30       	cpi	r24, 0x03	; 3
    2758:	91 05       	cpc	r25, r1
    275a:	d1 f0       	breq	.+52     	; 0x2790 <.L12>
    275c:	20 91 2e 06 	lds	r18, 0x062E	; 0x80062e <disp7s_data_array+0x3>
    2760:	23 83       	std	Z+3, r18	; 0x03
    2762:	84 30       	cpi	r24, 0x04	; 4
    2764:	91 05       	cpc	r25, r1
    2766:	a1 f0       	breq	.+40     	; 0x2790 <.L12>
    2768:	20 91 2f 06 	lds	r18, 0x062F	; 0x80062f <disp7s_data_array+0x4>
    276c:	24 83       	std	Z+4, r18	; 0x04
    276e:	85 30       	cpi	r24, 0x05	; 5
    2770:	91 05       	cpc	r25, r1
    2772:	71 f0       	breq	.+28     	; 0x2790 <.L12>
    2774:	20 91 30 06 	lds	r18, 0x0630	; 0x800630 <disp7s_data_array+0x5>
    2778:	25 83       	std	Z+5, r18	; 0x05
    277a:	86 30       	cpi	r24, 0x06	; 6
    277c:	91 05       	cpc	r25, r1
    277e:	41 f0       	breq	.+16     	; 0x2790 <.L12>
    2780:	20 91 31 06 	lds	r18, 0x0631	; 0x800631 <disp7s_data_array+0x6>
    2784:	26 83       	std	Z+6, r18	; 0x06
    2786:	07 97       	sbiw	r24, 0x07	; 7
    2788:	19 f0       	breq	.+6      	; 0x2790 <.L12>
    278a:	80 91 32 06 	lds	r24, 0x0632	; 0x800632 <disp7s_data_array+0x7>
    278e:	87 83       	std	Z+7, r24	; 0x07

00002790 <.L12>:
    2790:	08 95       	ret

00002792 <disp7s_clear_all>:
    2792:	eb e2       	ldi	r30, 0x2B	; 43
    2794:	f6 e0       	ldi	r31, 0x06	; 6
    2796:	88 e0       	ldi	r24, 0x08	; 8
    2798:	df 01       	movw	r26, r30

0000279a <.L^B1>:
    279a:	1d 92       	st	X+, r1
    279c:	8a 95       	dec	r24
    279e:	e9 f7       	brne	.-6      	; 0x279a <.L^B1>
    27a0:	08 95       	ret

000027a2 <integer_to_arraybcd_msb_lsb_paddingleft_blank>:
    27a2:	cf 92       	push	r12
    27a4:	df 92       	push	r13
    27a6:	ef 92       	push	r14
    27a8:	ff 92       	push	r15
    27aa:	0f 93       	push	r16
    27ac:	1f 93       	push	r17
    27ae:	cf 93       	push	r28
    27b0:	df 93       	push	r29
    27b2:	cd b7       	in	r28, 0x3d	; 61
    27b4:	de b7       	in	r29, 0x3e	; 62
    27b6:	2a 97       	sbiw	r28, 0x0a	; 10
    27b8:	0f b6       	in	r0, 0x3f	; 63
    27ba:	f8 94       	cli
    27bc:	de bf       	out	0x3e, r29	; 62
    27be:	0f be       	out	0x3f, r0	; 63
    27c0:	cd bf       	out	0x3d, r28	; 61
    27c2:	7c 01       	movw	r14, r24
    27c4:	8b 01       	movw	r16, r22
    27c6:	c4 2e       	mov	r12, r20
    27c8:	04 2e       	mov	r0, r20
    27ca:	00 0c       	add	r0, r0
    27cc:	dd 08       	sbc	r13, r13
    27ce:	14 16       	cp	r1, r20
    27d0:	34 f4       	brge	.+12     	; 0x27de <.L37>
    27d2:	a6 01       	movw	r20, r12
    27d4:	60 e0       	ldi	r22, 0x00	; 0
    27d6:	70 e0       	ldi	r23, 0x00	; 0
    27d8:	c8 01       	movw	r24, r16
    27da:	0e 94 bb 23 	call	0x4776	; 0x4776 <memset>

000027de <.L37>:
    27de:	be 01       	movw	r22, r28
    27e0:	6f 5f       	subi	r22, 0xFF	; 255
    27e2:	7f 4f       	sbci	r23, 0xFF	; 255
    27e4:	c7 01       	movw	r24, r14
    27e6:	0e 94 49 00 	call	0x92	; 0x92 <integer_to_arraybcd_msb_lsb>
    27ea:	9c 01       	movw	r18, r24
    27ec:	c8 1a       	sub	r12, r24
    27ee:	d9 0a       	sbc	r13, r25
    27f0:	18 16       	cp	r1, r24
    27f2:	19 06       	cpc	r1, r25
    27f4:	0c f0       	brlt	.+2      	; 0x27f8 <L0^A+0x2>

000027f6 <L0^A>:
    27f6:	91 c0       	rjmp	.+290    	; 0x291a <.L36>
    27f8:	c6 01       	movw	r24, r12
    27fa:	01 96       	adiw	r24, 0x01	; 1
    27fc:	e9 81       	ldd	r30, Y+1	; 0x01
    27fe:	f0 e0       	ldi	r31, 0x00	; 0
    2800:	ed 53       	subi	r30, 0x3D	; 61
    2802:	fb 4f       	sbci	r31, 0xFB	; 251
    2804:	60 81       	ld	r22, Z
    2806:	f8 01       	movw	r30, r16
    2808:	ec 0d       	add	r30, r12
    280a:	fd 1d       	adc	r31, r13
    280c:	60 83       	st	Z, r22
    280e:	21 30       	cpi	r18, 0x01	; 1
    2810:	31 05       	cpc	r19, r1
    2812:	09 f4       	brne	.+2      	; 0x2816 <L0^A+0x2>

00002814 <L0^A>:
    2814:	82 c0       	rjmp	.+260    	; 0x291a <.L36>
    2816:	b6 01       	movw	r22, r12
    2818:	6e 5f       	subi	r22, 0xFE	; 254
    281a:	7f 4f       	sbci	r23, 0xFF	; 255
    281c:	80 0f       	add	r24, r16
    281e:	91 1f       	adc	r25, r17
    2820:	ea 81       	ldd	r30, Y+2	; 0x02
    2822:	f0 e0       	ldi	r31, 0x00	; 0
    2824:	ed 53       	subi	r30, 0x3D	; 61
    2826:	fb 4f       	sbci	r31, 0xFB	; 251
    2828:	e0 81       	ld	r30, Z
    282a:	dc 01       	movw	r26, r24
    282c:	ec 93       	st	X, r30
    282e:	22 30       	cpi	r18, 0x02	; 2
    2830:	31 05       	cpc	r19, r1
    2832:	09 f4       	brne	.+2      	; 0x2836 <L0^A+0x2>

00002834 <L0^A>:
    2834:	72 c0       	rjmp	.+228    	; 0x291a <.L36>
    2836:	c6 01       	movw	r24, r12
    2838:	03 96       	adiw	r24, 0x03	; 3
    283a:	60 0f       	add	r22, r16
    283c:	71 1f       	adc	r23, r17
    283e:	eb 81       	ldd	r30, Y+3	; 0x03
    2840:	f0 e0       	ldi	r31, 0x00	; 0
    2842:	ed 53       	subi	r30, 0x3D	; 61
    2844:	fb 4f       	sbci	r31, 0xFB	; 251
    2846:	e0 81       	ld	r30, Z
    2848:	db 01       	movw	r26, r22
    284a:	ec 93       	st	X, r30
    284c:	23 30       	cpi	r18, 0x03	; 3
    284e:	31 05       	cpc	r19, r1
    2850:	09 f4       	brne	.+2      	; 0x2854 <L0^A+0x2>

00002852 <L0^A>:
    2852:	63 c0       	rjmp	.+198    	; 0x291a <.L36>
    2854:	b6 01       	movw	r22, r12
    2856:	6c 5f       	subi	r22, 0xFC	; 252
    2858:	7f 4f       	sbci	r23, 0xFF	; 255
    285a:	80 0f       	add	r24, r16
    285c:	91 1f       	adc	r25, r17
    285e:	ec 81       	ldd	r30, Y+4	; 0x04
    2860:	f0 e0       	ldi	r31, 0x00	; 0
    2862:	ed 53       	subi	r30, 0x3D	; 61
    2864:	fb 4f       	sbci	r31, 0xFB	; 251
    2866:	e0 81       	ld	r30, Z
    2868:	dc 01       	movw	r26, r24
    286a:	ec 93       	st	X, r30
    286c:	24 30       	cpi	r18, 0x04	; 4
    286e:	31 05       	cpc	r19, r1
    2870:	09 f4       	brne	.+2      	; 0x2874 <L0^A+0x2>

00002872 <L0^A>:
    2872:	53 c0       	rjmp	.+166    	; 0x291a <.L36>
    2874:	c6 01       	movw	r24, r12
    2876:	05 96       	adiw	r24, 0x05	; 5
    2878:	60 0f       	add	r22, r16
    287a:	71 1f       	adc	r23, r17
    287c:	ed 81       	ldd	r30, Y+5	; 0x05
    287e:	f0 e0       	ldi	r31, 0x00	; 0
    2880:	ed 53       	subi	r30, 0x3D	; 61
    2882:	fb 4f       	sbci	r31, 0xFB	; 251
    2884:	e0 81       	ld	r30, Z
    2886:	db 01       	movw	r26, r22
    2888:	ec 93       	st	X, r30
    288a:	25 30       	cpi	r18, 0x05	; 5
    288c:	31 05       	cpc	r19, r1
    288e:	09 f4       	brne	.+2      	; 0x2892 <L0^A+0x2>

00002890 <L0^A>:
    2890:	44 c0       	rjmp	.+136    	; 0x291a <.L36>
    2892:	b6 01       	movw	r22, r12
    2894:	6a 5f       	subi	r22, 0xFA	; 250
    2896:	7f 4f       	sbci	r23, 0xFF	; 255
    2898:	80 0f       	add	r24, r16
    289a:	91 1f       	adc	r25, r17
    289c:	ee 81       	ldd	r30, Y+6	; 0x06
    289e:	f0 e0       	ldi	r31, 0x00	; 0
    28a0:	ed 53       	subi	r30, 0x3D	; 61
    28a2:	fb 4f       	sbci	r31, 0xFB	; 251
    28a4:	e0 81       	ld	r30, Z
    28a6:	dc 01       	movw	r26, r24
    28a8:	ec 93       	st	X, r30
    28aa:	26 30       	cpi	r18, 0x06	; 6
    28ac:	31 05       	cpc	r19, r1
    28ae:	a9 f1       	breq	.+106    	; 0x291a <.L36>
    28b0:	c6 01       	movw	r24, r12
    28b2:	07 96       	adiw	r24, 0x07	; 7
    28b4:	60 0f       	add	r22, r16
    28b6:	71 1f       	adc	r23, r17
    28b8:	ef 81       	ldd	r30, Y+7	; 0x07
    28ba:	f0 e0       	ldi	r31, 0x00	; 0
    28bc:	ed 53       	subi	r30, 0x3D	; 61
    28be:	fb 4f       	sbci	r31, 0xFB	; 251
    28c0:	e0 81       	ld	r30, Z
    28c2:	db 01       	movw	r26, r22
    28c4:	ec 93       	st	X, r30
    28c6:	27 30       	cpi	r18, 0x07	; 7
    28c8:	31 05       	cpc	r19, r1
    28ca:	39 f1       	breq	.+78     	; 0x291a <.L36>
    28cc:	b6 01       	movw	r22, r12
    28ce:	68 5f       	subi	r22, 0xF8	; 248
    28d0:	7f 4f       	sbci	r23, 0xFF	; 255
    28d2:	80 0f       	add	r24, r16
    28d4:	91 1f       	adc	r25, r17
    28d6:	e8 85       	ldd	r30, Y+8	; 0x08
    28d8:	f0 e0       	ldi	r31, 0x00	; 0
    28da:	ed 53       	subi	r30, 0x3D	; 61
    28dc:	fb 4f       	sbci	r31, 0xFB	; 251
    28de:	e0 81       	ld	r30, Z
    28e0:	dc 01       	movw	r26, r24
    28e2:	ec 93       	st	X, r30
    28e4:	28 30       	cpi	r18, 0x08	; 8
    28e6:	31 05       	cpc	r19, r1
    28e8:	c1 f0       	breq	.+48     	; 0x291a <.L36>
    28ea:	a6 01       	movw	r20, r12
    28ec:	47 5f       	subi	r20, 0xF7	; 247
    28ee:	5f 4f       	sbci	r21, 0xFF	; 255
    28f0:	60 0f       	add	r22, r16
    28f2:	71 1f       	adc	r23, r17
    28f4:	e9 85       	ldd	r30, Y+9	; 0x09
    28f6:	f0 e0       	ldi	r31, 0x00	; 0
    28f8:	ed 53       	subi	r30, 0x3D	; 61
    28fa:	fb 4f       	sbci	r31, 0xFB	; 251
    28fc:	80 81       	ld	r24, Z
    28fe:	fb 01       	movw	r30, r22
    2900:	80 83       	st	Z, r24
    2902:	29 30       	cpi	r18, 0x09	; 9
    2904:	31 05       	cpc	r19, r1
    2906:	49 f0       	breq	.+18     	; 0x291a <.L36>
    2908:	f8 01       	movw	r30, r16
    290a:	e4 0f       	add	r30, r20
    290c:	f5 1f       	adc	r31, r21
    290e:	aa 85       	ldd	r26, Y+10	; 0x0a
    2910:	b0 e0       	ldi	r27, 0x00	; 0
    2912:	ad 53       	subi	r26, 0x3D	; 61
    2914:	bb 4f       	sbci	r27, 0xFB	; 251
    2916:	8c 91       	ld	r24, X
    2918:	80 83       	st	Z, r24

0000291a <.L36>:
    291a:	2a 96       	adiw	r28, 0x0a	; 10
    291c:	0f b6       	in	r0, 0x3f	; 63
    291e:	f8 94       	cli
    2920:	de bf       	out	0x3e, r29	; 62
    2922:	0f be       	out	0x3f, r0	; 63
    2924:	cd bf       	out	0x3d, r28	; 61
    2926:	df 91       	pop	r29
    2928:	cf 91       	pop	r28
    292a:	1f 91       	pop	r17
    292c:	0f 91       	pop	r16
    292e:	ff 90       	pop	r15
    2930:	ef 90       	pop	r14
    2932:	df 90       	pop	r13
    2934:	cf 90       	pop	r12
    2936:	08 95       	ret

00002938 <integer_to_arraybcd_msb_lsb_paddingleft_zeroes>:
    2938:	df 92       	push	r13
    293a:	ef 92       	push	r14
    293c:	ff 92       	push	r15
    293e:	0f 93       	push	r16
    2940:	1f 93       	push	r17
    2942:	cf 93       	push	r28
    2944:	df 93       	push	r29
    2946:	cd b7       	in	r28, 0x3d	; 61
    2948:	de b7       	in	r29, 0x3e	; 62
    294a:	2a 97       	sbiw	r28, 0x0a	; 10
    294c:	0f b6       	in	r0, 0x3f	; 63
    294e:	f8 94       	cli
    2950:	de bf       	out	0x3e, r29	; 62
    2952:	0f be       	out	0x3f, r0	; 63
    2954:	cd bf       	out	0x3d, r28	; 61
    2956:	d8 2e       	mov	r13, r24
    2958:	09 2f       	mov	r16, r25
    295a:	7b 01       	movw	r14, r22
    295c:	14 2f       	mov	r17, r20
    295e:	14 16       	cp	r1, r20
    2960:	34 f4       	brge	.+12     	; 0x296e <.L67>
    2962:	50 e0       	ldi	r21, 0x00	; 0
    2964:	6b ee       	ldi	r22, 0xEB	; 235
    2966:	70 e0       	ldi	r23, 0x00	; 0
    2968:	c7 01       	movw	r24, r14
    296a:	0e 94 bb 23 	call	0x4776	; 0x4776 <memset>

0000296e <.L67>:
    296e:	be 01       	movw	r22, r28
    2970:	6f 5f       	subi	r22, 0xFF	; 255
    2972:	7f 4f       	sbci	r23, 0xFF	; 255
    2974:	8d 2d       	mov	r24, r13
    2976:	90 2f       	mov	r25, r16
    2978:	0e 94 49 00 	call	0x92	; 0x92 <integer_to_arraybcd_msb_lsb>
    297c:	9c 01       	movw	r18, r24
    297e:	41 2f       	mov	r20, r17
    2980:	11 0f       	add	r17, r17
    2982:	55 0b       	sbc	r21, r21
    2984:	48 1b       	sub	r20, r24
    2986:	59 0b       	sbc	r21, r25
    2988:	18 16       	cp	r1, r24
    298a:	19 06       	cpc	r1, r25
    298c:	0c f0       	brlt	.+2      	; 0x2990 <L0^A+0x2>

0000298e <L0^A>:
    298e:	90 c0       	rjmp	.+288    	; 0x2ab0 <.L66>
    2990:	ca 01       	movw	r24, r20
    2992:	01 96       	adiw	r24, 0x01	; 1
    2994:	e9 81       	ldd	r30, Y+1	; 0x01
    2996:	f0 e0       	ldi	r31, 0x00	; 0
    2998:	ed 53       	subi	r30, 0x3D	; 61
    299a:	fb 4f       	sbci	r31, 0xFB	; 251
    299c:	60 81       	ld	r22, Z
    299e:	f7 01       	movw	r30, r14
    29a0:	e4 0f       	add	r30, r20
    29a2:	f5 1f       	adc	r31, r21
    29a4:	60 83       	st	Z, r22
    29a6:	21 30       	cpi	r18, 0x01	; 1
    29a8:	31 05       	cpc	r19, r1
    29aa:	09 f4       	brne	.+2      	; 0x29ae <L0^A+0x2>

000029ac <L0^A>:
    29ac:	81 c0       	rjmp	.+258    	; 0x2ab0 <.L66>
    29ae:	ba 01       	movw	r22, r20
    29b0:	6e 5f       	subi	r22, 0xFE	; 254
    29b2:	7f 4f       	sbci	r23, 0xFF	; 255
    29b4:	8e 0d       	add	r24, r14
    29b6:	9f 1d       	adc	r25, r15
    29b8:	ea 81       	ldd	r30, Y+2	; 0x02
    29ba:	f0 e0       	ldi	r31, 0x00	; 0
    29bc:	ed 53       	subi	r30, 0x3D	; 61
    29be:	fb 4f       	sbci	r31, 0xFB	; 251
    29c0:	e0 81       	ld	r30, Z
    29c2:	dc 01       	movw	r26, r24
    29c4:	ec 93       	st	X, r30
    29c6:	22 30       	cpi	r18, 0x02	; 2
    29c8:	31 05       	cpc	r19, r1
    29ca:	09 f4       	brne	.+2      	; 0x29ce <L0^A+0x2>

000029cc <L0^A>:
    29cc:	71 c0       	rjmp	.+226    	; 0x2ab0 <.L66>
    29ce:	ca 01       	movw	r24, r20
    29d0:	03 96       	adiw	r24, 0x03	; 3
    29d2:	6e 0d       	add	r22, r14
    29d4:	7f 1d       	adc	r23, r15
    29d6:	eb 81       	ldd	r30, Y+3	; 0x03
    29d8:	f0 e0       	ldi	r31, 0x00	; 0
    29da:	ed 53       	subi	r30, 0x3D	; 61
    29dc:	fb 4f       	sbci	r31, 0xFB	; 251
    29de:	e0 81       	ld	r30, Z
    29e0:	db 01       	movw	r26, r22
    29e2:	ec 93       	st	X, r30
    29e4:	23 30       	cpi	r18, 0x03	; 3
    29e6:	31 05       	cpc	r19, r1
    29e8:	09 f4       	brne	.+2      	; 0x29ec <L0^A+0x2>

000029ea <L0^A>:
    29ea:	62 c0       	rjmp	.+196    	; 0x2ab0 <.L66>
    29ec:	ba 01       	movw	r22, r20
    29ee:	6c 5f       	subi	r22, 0xFC	; 252
    29f0:	7f 4f       	sbci	r23, 0xFF	; 255
    29f2:	8e 0d       	add	r24, r14
    29f4:	9f 1d       	adc	r25, r15
    29f6:	ec 81       	ldd	r30, Y+4	; 0x04
    29f8:	f0 e0       	ldi	r31, 0x00	; 0
    29fa:	ed 53       	subi	r30, 0x3D	; 61
    29fc:	fb 4f       	sbci	r31, 0xFB	; 251
    29fe:	e0 81       	ld	r30, Z
    2a00:	dc 01       	movw	r26, r24
    2a02:	ec 93       	st	X, r30
    2a04:	24 30       	cpi	r18, 0x04	; 4
    2a06:	31 05       	cpc	r19, r1
    2a08:	09 f4       	brne	.+2      	; 0x2a0c <L0^A+0x2>

00002a0a <L0^A>:
    2a0a:	52 c0       	rjmp	.+164    	; 0x2ab0 <.L66>
    2a0c:	ca 01       	movw	r24, r20
    2a0e:	05 96       	adiw	r24, 0x05	; 5
    2a10:	6e 0d       	add	r22, r14
    2a12:	7f 1d       	adc	r23, r15
    2a14:	ed 81       	ldd	r30, Y+5	; 0x05
    2a16:	f0 e0       	ldi	r31, 0x00	; 0
    2a18:	ed 53       	subi	r30, 0x3D	; 61
    2a1a:	fb 4f       	sbci	r31, 0xFB	; 251
    2a1c:	e0 81       	ld	r30, Z
    2a1e:	db 01       	movw	r26, r22
    2a20:	ec 93       	st	X, r30
    2a22:	25 30       	cpi	r18, 0x05	; 5
    2a24:	31 05       	cpc	r19, r1
    2a26:	09 f4       	brne	.+2      	; 0x2a2a <L0^A+0x2>

00002a28 <L0^A>:
    2a28:	43 c0       	rjmp	.+134    	; 0x2ab0 <.L66>
    2a2a:	ba 01       	movw	r22, r20
    2a2c:	6a 5f       	subi	r22, 0xFA	; 250
    2a2e:	7f 4f       	sbci	r23, 0xFF	; 255
    2a30:	8e 0d       	add	r24, r14
    2a32:	9f 1d       	adc	r25, r15
    2a34:	ee 81       	ldd	r30, Y+6	; 0x06
    2a36:	f0 e0       	ldi	r31, 0x00	; 0
    2a38:	ed 53       	subi	r30, 0x3D	; 61
    2a3a:	fb 4f       	sbci	r31, 0xFB	; 251
    2a3c:	e0 81       	ld	r30, Z
    2a3e:	dc 01       	movw	r26, r24
    2a40:	ec 93       	st	X, r30
    2a42:	26 30       	cpi	r18, 0x06	; 6
    2a44:	31 05       	cpc	r19, r1
    2a46:	a1 f1       	breq	.+104    	; 0x2ab0 <.L66>
    2a48:	ca 01       	movw	r24, r20
    2a4a:	07 96       	adiw	r24, 0x07	; 7
    2a4c:	6e 0d       	add	r22, r14
    2a4e:	7f 1d       	adc	r23, r15
    2a50:	ef 81       	ldd	r30, Y+7	; 0x07
    2a52:	f0 e0       	ldi	r31, 0x00	; 0
    2a54:	ed 53       	subi	r30, 0x3D	; 61
    2a56:	fb 4f       	sbci	r31, 0xFB	; 251
    2a58:	e0 81       	ld	r30, Z
    2a5a:	db 01       	movw	r26, r22
    2a5c:	ec 93       	st	X, r30
    2a5e:	27 30       	cpi	r18, 0x07	; 7
    2a60:	31 05       	cpc	r19, r1
    2a62:	31 f1       	breq	.+76     	; 0x2ab0 <.L66>
    2a64:	ba 01       	movw	r22, r20
    2a66:	68 5f       	subi	r22, 0xF8	; 248
    2a68:	7f 4f       	sbci	r23, 0xFF	; 255
    2a6a:	8e 0d       	add	r24, r14
    2a6c:	9f 1d       	adc	r25, r15
    2a6e:	e8 85       	ldd	r30, Y+8	; 0x08
    2a70:	f0 e0       	ldi	r31, 0x00	; 0
    2a72:	ed 53       	subi	r30, 0x3D	; 61
    2a74:	fb 4f       	sbci	r31, 0xFB	; 251
    2a76:	e0 81       	ld	r30, Z
    2a78:	dc 01       	movw	r26, r24
    2a7a:	ec 93       	st	X, r30
    2a7c:	28 30       	cpi	r18, 0x08	; 8
    2a7e:	31 05       	cpc	r19, r1
    2a80:	b9 f0       	breq	.+46     	; 0x2ab0 <.L66>
    2a82:	47 5f       	subi	r20, 0xF7	; 247
    2a84:	5f 4f       	sbci	r21, 0xFF	; 255
    2a86:	6e 0d       	add	r22, r14
    2a88:	7f 1d       	adc	r23, r15
    2a8a:	e9 85       	ldd	r30, Y+9	; 0x09
    2a8c:	f0 e0       	ldi	r31, 0x00	; 0
    2a8e:	ed 53       	subi	r30, 0x3D	; 61
    2a90:	fb 4f       	sbci	r31, 0xFB	; 251
    2a92:	80 81       	ld	r24, Z
    2a94:	fb 01       	movw	r30, r22
    2a96:	80 83       	st	Z, r24
    2a98:	29 30       	cpi	r18, 0x09	; 9
    2a9a:	31 05       	cpc	r19, r1
    2a9c:	49 f0       	breq	.+18     	; 0x2ab0 <.L66>
    2a9e:	f7 01       	movw	r30, r14
    2aa0:	e4 0f       	add	r30, r20
    2aa2:	f5 1f       	adc	r31, r21
    2aa4:	aa 85       	ldd	r26, Y+10	; 0x0a
    2aa6:	b0 e0       	ldi	r27, 0x00	; 0
    2aa8:	ad 53       	subi	r26, 0x3D	; 61
    2aaa:	bb 4f       	sbci	r27, 0xFB	; 251
    2aac:	8c 91       	ld	r24, X
    2aae:	80 83       	st	Z, r24

00002ab0 <.L66>:
    2ab0:	2a 96       	adiw	r28, 0x0a	; 10
    2ab2:	0f b6       	in	r0, 0x3f	; 63
    2ab4:	f8 94       	cli
    2ab6:	de bf       	out	0x3e, r29	; 62
    2ab8:	0f be       	out	0x3f, r0	; 63
    2aba:	cd bf       	out	0x3d, r28	; 61
    2abc:	df 91       	pop	r29
    2abe:	cf 91       	pop	r28
    2ac0:	1f 91       	pop	r17
    2ac2:	0f 91       	pop	r16
    2ac4:	ff 90       	pop	r15
    2ac6:	ef 90       	pop	r14
    2ac8:	df 90       	pop	r13
    2aca:	08 95       	ret

00002acc <disp7s_decimalpoint_on>:
    2acc:	fc 01       	movw	r30, r24
    2ace:	80 81       	ld	r24, Z
    2ad0:	84 60       	ori	r24, 0x04	; 4
    2ad2:	80 83       	st	Z, r24
    2ad4:	08 95       	ret

00002ad6 <disp7s_decimalpoint_off>:
    2ad6:	fc 01       	movw	r30, r24
    2ad8:	80 81       	ld	r24, Z
    2ada:	8b 7f       	andi	r24, 0xFB	; 251
    2adc:	80 83       	st	Z, r24
    2ade:	08 95       	ret

00002ae0 <disp7s_mux0_off>:
    2ae0:	95 98       	cbi	0x12, 5	; 18
    2ae2:	08 95       	ret

00002ae4 <disp7s_mux0_on>:
    2ae4:	95 9a       	sbi	0x12, 5	; 18
    2ae6:	08 95       	ret

00002ae8 <disp7s_mux1_off>:
    2ae8:	92 98       	cbi	0x12, 2	; 18
    2aea:	08 95       	ret

00002aec <disp7s_mux1_on>:
    2aec:	92 9a       	sbi	0x12, 2	; 18
    2aee:	08 95       	ret

00002af0 <disp7s_mux2_off>:
    2af0:	93 98       	cbi	0x12, 3	; 18
    2af2:	08 95       	ret

00002af4 <disp7s_mux2_on>:
    2af4:	93 9a       	sbi	0x12, 3	; 18
    2af6:	08 95       	ret

00002af8 <disp7s_mux3_off>:
    2af8:	94 98       	cbi	0x12, 4	; 18
    2afa:	08 95       	ret

00002afc <disp7s_mux3_on>:
    2afc:	94 9a       	sbi	0x12, 4	; 18
    2afe:	08 95       	ret

00002b00 <disp7s_mux4_off>:
    2b00:	df 98       	cbi	0x1b, 7	; 27
    2b02:	08 95       	ret

00002b04 <disp7s_mux4_on>:
    2b04:	df 9a       	sbi	0x1b, 7	; 27
    2b06:	08 95       	ret

00002b08 <disp7s_mux5_off>:
    2b08:	de 98       	cbi	0x1b, 6	; 27
    2b0a:	08 95       	ret

00002b0c <disp7s_mux5_on>:
    2b0c:	de 9a       	sbi	0x1b, 6	; 27
    2b0e:	08 95       	ret

00002b10 <disp7s_mux6_off>:
    2b10:	dd 98       	cbi	0x1b, 5	; 27
    2b12:	08 95       	ret

00002b14 <disp7s_mux6_on>:
    2b14:	dd 9a       	sbi	0x1b, 5	; 27
    2b16:	08 95       	ret

00002b18 <disp7s_mux7_off>:
    2b18:	dc 98       	cbi	0x1b, 4	; 27
    2b1a:	08 95       	ret

00002b1c <disp7s_mux7_on>:
    2b1c:	dc 9a       	sbi	0x1b, 4	; 27
    2b1e:	08 95       	ret

00002b20 <disp7s_init>:
    2b20:	cf 93       	push	r28
    2b22:	df 93       	push	r29
    2b24:	20 e6       	ldi	r18, 0x60	; 96
    2b26:	30 e0       	ldi	r19, 0x00	; 0
    2b28:	4b e2       	ldi	r20, 0x2B	; 43
    2b2a:	56 e0       	ldi	r21, 0x06	; 6
    2b2c:	65 e3       	ldi	r22, 0x35	; 53
    2b2e:	70 e0       	ldi	r23, 0x00	; 0
    2b30:	88 e0       	ldi	r24, 0x08	; 8
    2b32:	0e 94 e5 12 	call	0x25ca	; 0x25ca <disp7s_setup>
    2b36:	c0 e6       	ldi	r28, 0x60	; 96
    2b38:	d0 e0       	ldi	r29, 0x00	; 0

00002b3a <.L19>:
    2b3a:	e8 81       	ld	r30, Y
    2b3c:	f9 81       	ldd	r31, Y+1	; 0x01
    2b3e:	09 95       	icall
    2b40:	24 96       	adiw	r28, 0x04	; 4
    2b42:	80 e0       	ldi	r24, 0x00	; 0
    2b44:	c0 38       	cpi	r28, 0x80	; 128
    2b46:	d8 07       	cpc	r29, r24
    2b48:	c1 f7       	brne	.-16     	; 0x2b3a <.L19>
    2b4a:	8d 9a       	sbi	0x11, 5	; 17
    2b4c:	8a 9a       	sbi	0x11, 2	; 17
    2b4e:	8b 9a       	sbi	0x11, 3	; 17
    2b50:	8c 9a       	sbi	0x11, 4	; 17
    2b52:	d7 9a       	sbi	0x1a, 7	; 26
    2b54:	d6 9a       	sbi	0x1a, 6	; 26
    2b56:	d5 9a       	sbi	0x1a, 5	; 26
    2b58:	d4 9a       	sbi	0x1a, 4	; 26
    2b5a:	84 b3       	in	r24, 0x14	; 20
    2b5c:	8f ef       	ldi	r24, 0xFF	; 255
    2b5e:	84 bb       	out	0x14, r24	; 20
    2b60:	df 91       	pop	r29
    2b62:	cf 91       	pop	r28
    2b64:	08 95       	ret

00002b66 <mypid0_set>:
    2b66:	ed e3       	ldi	r30, 0x3D	; 61
    2b68:	f6 e0       	ldi	r31, 0x06	; 6
    2b6a:	24 e6       	ldi	r18, 0x64	; 100
    2b6c:	30 e0       	ldi	r19, 0x00	; 0
    2b6e:	30 a7       	std	Z+40, r19	; 0x28
    2b70:	27 a3       	std	Z+39, r18	; 0x27
    2b72:	8a e0       	ldi	r24, 0x0A	; 10
    2b74:	90 e0       	ldi	r25, 0x00	; 0
    2b76:	91 8b       	std	Z+17, r25	; 0x11
    2b78:	80 8b       	std	Z+16, r24	; 0x10
    2b7a:	35 87       	std	Z+13, r19	; 0x0d
    2b7c:	24 87       	std	Z+12, r18	; 0x0c
    2b7e:	17 86       	std	Z+15, r1	; 0x0f
    2b80:	16 86       	std	Z+14, r1	; 0x0e
    2b82:	25 e0       	ldi	r18, 0x05	; 5
    2b84:	30 e0       	ldi	r19, 0x00	; 0
    2b86:	32 a7       	std	Z+42, r19	; 0x2a
    2b88:	21 a7       	std	Z+41, r18	; 0x29
    2b8a:	22 e3       	ldi	r18, 0x32	; 50
    2b8c:	30 e0       	ldi	r19, 0x00	; 0
    2b8e:	34 a7       	std	Z+44, r19	; 0x2c
    2b90:	23 a7       	std	Z+43, r18	; 0x2b
    2b92:	4d ec       	ldi	r20, 0xCD	; 205
    2b94:	5c ec       	ldi	r21, 0xCC	; 204
    2b96:	6c ec       	ldi	r22, 0xCC	; 204
    2b98:	7e e3       	ldi	r23, 0x3E	; 62
    2b9a:	42 8b       	std	Z+18, r20	; 0x12
    2b9c:	53 8b       	std	Z+19, r21	; 0x13
    2b9e:	64 8b       	std	Z+20, r22	; 0x14
    2ba0:	75 8b       	std	Z+21, r23	; 0x15
    2ba2:	4d ec       	ldi	r20, 0xCD	; 205
    2ba4:	5c ec       	ldi	r21, 0xCC	; 204
    2ba6:	6c ec       	ldi	r22, 0xCC	; 204
    2ba8:	7d e3       	ldi	r23, 0x3D	; 61
    2baa:	46 8b       	std	Z+22, r20	; 0x16
    2bac:	57 8b       	std	Z+23, r21	; 0x17
    2bae:	60 8f       	std	Z+24, r22	; 0x18
    2bb0:	71 8f       	std	Z+25, r23	; 0x19
    2bb2:	12 8e       	std	Z+26, r1	; 0x1a
    2bb4:	13 8e       	std	Z+27, r1	; 0x1b
    2bb6:	14 8e       	std	Z+28, r1	; 0x1c
    2bb8:	15 8e       	std	Z+29, r1	; 0x1d
    2bba:	13 86       	std	Z+11, r1	; 0x0b
    2bbc:	12 86       	std	Z+10, r1	; 0x0a
    2bbe:	91 87       	std	Z+9, r25	; 0x09
    2bc0:	80 87       	std	Z+8, r24	; 0x08
    2bc2:	88 e3       	ldi	r24, 0x38	; 56
    2bc4:	90 e0       	ldi	r25, 0x00	; 0
    2bc6:	96 a7       	std	Z+46, r25	; 0x2e
    2bc8:	85 a7       	std	Z+45, r24	; 0x2d
    2bca:	82 e0       	ldi	r24, 0x02	; 2
    2bcc:	87 a7       	std	Z+47, r24	; 0x2f
    2bce:	08 95       	ret

00002bd0 <mypid0_adjust_kei_windup>:
    2bd0:	80 91 ec 06 	lds	r24, 0x06EC	; 0x8006ec <tmprture_coccion>
    2bd4:	90 91 ed 06 	lds	r25, 0x06ED	; 0x8006ed <tmprture_coccion+0x1>
    2bd8:	20 91 21 06 	lds	r18, 0x0621	; 0x800621 <TCtemperature>
    2bdc:	30 91 22 06 	lds	r19, 0x0622	; 0x800622 <TCtemperature+0x1>
    2be0:	82 1b       	sub	r24, r18
    2be2:	93 0b       	sbc	r25, r19
    2be4:	21 e0       	ldi	r18, 0x01	; 1
    2be6:	30 e0       	ldi	r19, 0x00	; 0
    2be8:	86 30       	cpi	r24, 0x06	; 6
    2bea:	91 05       	cpc	r25, r1
    2bec:	14 f0       	brlt	.+4      	; 0x2bf2 <.L4>
    2bee:	2a e0       	ldi	r18, 0x0A	; 10
    2bf0:	30 e0       	ldi	r19, 0x00	; 0

00002bf2 <.L4>:
    2bf2:	30 93 46 06 	sts	0x0646, r19	; 0x800646 <mypid0+0x9>
    2bf6:	20 93 45 06 	sts	0x0645, r18	; 0x800645 <mypid0+0x8>
    2bfa:	08 95       	ret

00002bfc <kbmode_default>:
    2bfc:	0f 93       	push	r16
    2bfe:	1f 93       	push	r17
    2c00:	cf 93       	push	r28
    2c02:	df 93       	push	r29
    2c04:	00 d0       	rcall	.+0      	; 0x2c06 <L0^A>

00002c06 <L0^A>:
    2c06:	00 d0       	rcall	.+0      	; 0x2c08 <L0^A>

00002c08 <L0^A>:
    2c08:	00 d0       	rcall	.+0      	; 0x2c0a <L0^A>

00002c0a <L0^A>:
    2c0a:	cd b7       	in	r28, 0x3d	; 61
    2c0c:	de b7       	in	r29, 0x3e	; 62
    2c0e:	8c 01       	movw	r16, r24
    2c10:	86 e0       	ldi	r24, 0x06	; 6
    2c12:	e0 e8       	ldi	r30, 0x80	; 128
    2c14:	f0 e0       	ldi	r31, 0x00	; 0
    2c16:	de 01       	movw	r26, r28
    2c18:	11 96       	adiw	r26, 0x01	; 1

00002c1a <.L^B1>:
    2c1a:	01 90       	ld	r0, Z+
    2c1c:	0d 92       	st	X+, r0
    2c1e:	8a 95       	dec	r24
    2c20:	e1 f7       	brne	.-8      	; 0x2c1a <.L^B1>
    2c22:	29 81       	ldd	r18, Y+1	; 0x01
    2c24:	21 60       	ori	r18, 0x01	; 1
    2c26:	29 83       	std	Y+1, r18	; 0x01
    2c28:	3a 81       	ldd	r19, Y+2	; 0x02
    2c2a:	4b 81       	ldd	r20, Y+3	; 0x03
    2c2c:	5c 81       	ldd	r21, Y+4	; 0x04
    2c2e:	6d 81       	ldd	r22, Y+5	; 0x05
    2c30:	7e 81       	ldd	r23, Y+6	; 0x06
    2c32:	f8 01       	movw	r30, r16
    2c34:	81 81       	ldd	r24, Z+1	; 0x01
    2c36:	0e 94 3b 08 	call	0x1076	; 0x1076 <ikb_setKeyProp>
    2c3a:	29 81       	ldd	r18, Y+1	; 0x01
    2c3c:	3a 81       	ldd	r19, Y+2	; 0x02
    2c3e:	4b 81       	ldd	r20, Y+3	; 0x03
    2c40:	5c 81       	ldd	r21, Y+4	; 0x04
    2c42:	6d 81       	ldd	r22, Y+5	; 0x05
    2c44:	7e 81       	ldd	r23, Y+6	; 0x06
    2c46:	f8 01       	movw	r30, r16
    2c48:	80 81       	ld	r24, Z
    2c4a:	0e 94 3b 08 	call	0x1076	; 0x1076 <ikb_setKeyProp>
    2c4e:	29 81       	ldd	r18, Y+1	; 0x01
    2c50:	2e 7d       	andi	r18, 0xDE	; 222
    2c52:	20 62       	ori	r18, 0x20	; 32
    2c54:	29 83       	std	Y+1, r18	; 0x01
    2c56:	3a 81       	ldd	r19, Y+2	; 0x02
    2c58:	4b 81       	ldd	r20, Y+3	; 0x03
    2c5a:	5c 81       	ldd	r21, Y+4	; 0x04
    2c5c:	6d 81       	ldd	r22, Y+5	; 0x05
    2c5e:	7e 81       	ldd	r23, Y+6	; 0x06
    2c60:	f8 01       	movw	r30, r16
    2c62:	84 81       	ldd	r24, Z+4	; 0x04
    2c64:	0e 94 3b 08 	call	0x1076	; 0x1076 <ikb_setKeyProp>
    2c68:	29 81       	ldd	r18, Y+1	; 0x01
    2c6a:	2c 7d       	andi	r18, 0xDC	; 220
    2c6c:	23 60       	ori	r18, 0x03	; 3
    2c6e:	29 83       	std	Y+1, r18	; 0x01
    2c70:	8a e0       	ldi	r24, 0x0A	; 10
    2c72:	38 2f       	mov	r19, r24
    2c74:	8a 83       	std	Y+2, r24	; 0x02
    2c76:	1b 82       	std	Y+3, r1	; 0x03
    2c78:	82 e0       	ldi	r24, 0x02	; 2
    2c7a:	58 2f       	mov	r21, r24
    2c7c:	8c 83       	std	Y+4, r24	; 0x04
    2c7e:	1d 82       	std	Y+5, r1	; 0x05
    2c80:	1e 82       	std	Y+6, r1	; 0x06
    2c82:	40 e0       	ldi	r20, 0x00	; 0
    2c84:	60 e0       	ldi	r22, 0x00	; 0
    2c86:	70 e0       	ldi	r23, 0x00	; 0
    2c88:	f8 01       	movw	r30, r16
    2c8a:	82 81       	ldd	r24, Z+2	; 0x02
    2c8c:	0e 94 3b 08 	call	0x1076	; 0x1076 <ikb_setKeyProp>
    2c90:	29 81       	ldd	r18, Y+1	; 0x01
    2c92:	3a 81       	ldd	r19, Y+2	; 0x02
    2c94:	4b 81       	ldd	r20, Y+3	; 0x03
    2c96:	5c 81       	ldd	r21, Y+4	; 0x04
    2c98:	6d 81       	ldd	r22, Y+5	; 0x05
    2c9a:	7e 81       	ldd	r23, Y+6	; 0x06
    2c9c:	f8 01       	movw	r30, r16
    2c9e:	83 81       	ldd	r24, Z+3	; 0x03
    2ca0:	0f 90       	pop	r0
    2ca2:	0f 90       	pop	r0
    2ca4:	0f 90       	pop	r0
    2ca6:	0f 90       	pop	r0
    2ca8:	0f 90       	pop	r0
    2caa:	0f 90       	pop	r0
    2cac:	df 91       	pop	r29
    2cae:	cf 91       	pop	r28
    2cb0:	1f 91       	pop	r17
    2cb2:	0f 91       	pop	r16
    2cb4:	0c 94 3b 08 	jmp	0x1076	; 0x1076 <ikb_setKeyProp>

00002cb8 <kbmode_2basket_set_default>:
    2cb8:	85 e7       	ldi	r24, 0x75	; 117
    2cba:	96 e0       	ldi	r25, 0x06	; 6
    2cbc:	0e 94 fe 15 	call	0x2bfc	; 0x2bfc <kbmode_default>
    2cc0:	8f e8       	ldi	r24, 0x8F	; 143
    2cc2:	96 e0       	ldi	r25, 0x06	; 6
    2cc4:	0c 94 fe 15 	jmp	0x2bfc	; 0x2bfc <kbmode_default>

00002cc8 <fryer_init>:
    2cc8:	89 e3       	ldi	r24, 0x39	; 57
    2cca:	eb ed       	ldi	r30, 0xDB	; 219
    2ccc:	f4 e0       	ldi	r31, 0x04	; 4
    2cce:	a1 e7       	ldi	r26, 0x71	; 113
    2cd0:	b6 e0       	ldi	r27, 0x06	; 6

00002cd2 <.L^B2>:
    2cd2:	01 90       	ld	r0, Z+
    2cd4:	0d 92       	st	X+, r0
    2cd6:	8a 95       	dec	r24
    2cd8:	e1 f7       	brne	.-8      	; 0x2cd2 <.L^B2>
    2cda:	e1 e7       	ldi	r30, 0x71	; 113
    2cdc:	f6 e0       	ldi	r31, 0x06	; 6
    2cde:	81 e0       	ldi	r24, 0x01	; 1
    2ce0:	86 83       	std	Z+6, r24	; 0x06
    2ce2:	82 e0       	ldi	r24, 0x02	; 2
    2ce4:	87 83       	std	Z+7, r24	; 0x07
    2ce6:	93 e0       	ldi	r25, 0x03	; 3
    2ce8:	90 87       	std	Z+8, r25	; 0x08
    2cea:	86 e0       	ldi	r24, 0x06	; 6
    2cec:	86 8f       	std	Z+30, r24	; 0x1e
    2cee:	84 e0       	ldi	r24, 0x04	; 4
    2cf0:	80 a3       	std	Z+32, r24	; 0x20
    2cf2:	25 e0       	ldi	r18, 0x05	; 5
    2cf4:	21 a3       	std	Z+33, r18	; 0x21
    2cf6:	92 a3       	std	Z+34, r25	; 0x22
    2cf8:	82 8f       	std	Z+26, r24	; 0x1a
    2cfa:	08 95       	ret

00002cfc <termopila_error>:
    2cfc:	80 91 33 06 	lds	r24, 0x0633	; 0x800633 <termopila>
    2d00:	90 91 34 06 	lds	r25, 0x0634	; 0x800634 <termopila+0x1>
    2d04:	89 2b       	or	r24, r25
    2d06:	c1 f4       	brne	.+48     	; 0x2d38 <.L10>
    2d08:	80 91 ac 06 	lds	r24, 0x06AC	; 0x8006ac <mainflag>
    2d0c:	80 ff       	sbrs	r24, 0
    2d0e:	1e c0       	rjmp	.+60     	; 0x2d4c <.L9>
    2d10:	80 91 37 06 	lds	r24, 0x0637	; 0x800637 <termopila+0x4>
    2d14:	90 91 38 06 	lds	r25, 0x0638	; 0x800638 <termopila+0x5>
    2d18:	01 96       	adiw	r24, 0x01	; 1
    2d1a:	82 33       	cpi	r24, 0x32	; 50
    2d1c:	91 05       	cpc	r25, r1
    2d1e:	0c f4       	brge	.+2      	; 0x2d22 <L0^A+0x2>

00002d20 <L0^A>:
    2d20:	5a c0       	rjmp	.+180    	; 0x2dd6 <.L19>
    2d22:	10 92 38 06 	sts	0x0638, r1	; 0x800638 <termopila+0x5>
    2d26:	10 92 37 06 	sts	0x0637, r1	; 0x800637 <termopila+0x4>
    2d2a:	81 e0       	ldi	r24, 0x01	; 1
    2d2c:	90 e0       	ldi	r25, 0x00	; 0
    2d2e:	90 93 34 06 	sts	0x0634, r25	; 0x800634 <termopila+0x1>
    2d32:	80 93 33 06 	sts	0x0633, r24	; 0x800633 <termopila>
    2d36:	08 95       	ret

00002d38 <.L10>:
    2d38:	80 91 35 06 	lds	r24, 0x0635	; 0x800635 <termopila+0x2>
    2d3c:	90 91 36 06 	lds	r25, 0x0636	; 0x800636 <termopila+0x3>
    2d40:	89 2b       	or	r24, r25
    2d42:	29 f4       	brne	.+10     	; 0x2d4e <.L15>
    2d44:	80 91 ac 06 	lds	r24, 0x06AC	; 0x8006ac <mainflag>
    2d48:	83 ff       	sbrs	r24, 3
    2d4a:	4a c0       	rjmp	.+148    	; 0x2de0 <.L20>

00002d4c <.L9>:
    2d4c:	08 95       	ret

00002d4e <.L15>:
    2d4e:	80 91 ae 06 	lds	r24, 0x06AE	; 0x8006ae <isr_flag>
    2d52:	81 ff       	sbrs	r24, 1
    2d54:	fb cf       	rjmp	.-10     	; 0x2d4c <.L9>
    2d56:	80 91 ae 06 	lds	r24, 0x06AE	; 0x8006ae <isr_flag>
    2d5a:	8d 7f       	andi	r24, 0xFD	; 253
    2d5c:	80 93 ae 06 	sts	0x06AE, r24	; 0x8006ae <isr_flag>
    2d60:	80 91 ac 06 	lds	r24, 0x06AC	; 0x8006ac <mainflag>
    2d64:	87 7f       	andi	r24, 0xF7	; 247
    2d66:	80 93 ac 06 	sts	0x06AC, r24	; 0x8006ac <mainflag>
    2d6a:	10 92 34 06 	sts	0x0634, r1	; 0x800634 <termopila+0x1>
    2d6e:	10 92 33 06 	sts	0x0633, r1	; 0x800633 <termopila>
    2d72:	10 92 36 06 	sts	0x0636, r1	; 0x800636 <termopila+0x3>
    2d76:	10 92 35 06 	sts	0x0635, r1	; 0x800635 <termopila+0x2>
    2d7a:	24 b1       	in	r18, 0x04	; 4
    2d7c:	85 b1       	in	r24, 0x05	; 5
    2d7e:	90 e0       	ldi	r25, 0x00	; 0
    2d80:	98 2f       	mov	r25, r24
    2d82:	88 27       	eor	r24, r24
    2d84:	82 0f       	add	r24, r18
    2d86:	91 1d       	adc	r25, r1
    2d88:	cb 97       	sbiw	r24, 0x3b	; 59
    2d8a:	48 f4       	brcc	.+18     	; 0x2d9e <.L16>
    2d8c:	80 91 3b 06 	lds	r24, 0x063B	; 0x80063b <termopila+0x8>
    2d90:	90 91 3c 06 	lds	r25, 0x063C	; 0x80063c <termopila+0x9>
    2d94:	01 96       	adiw	r24, 0x01	; 1
    2d96:	90 93 3c 06 	sts	0x063C, r25	; 0x80063c <termopila+0x9>
    2d9a:	80 93 3b 06 	sts	0x063B, r24	; 0x80063b <termopila+0x8>

00002d9e <.L16>:
    2d9e:	80 91 39 06 	lds	r24, 0x0639	; 0x800639 <termopila+0x6>
    2da2:	90 91 3a 06 	lds	r25, 0x063A	; 0x80063a <termopila+0x7>
    2da6:	01 96       	adiw	r24, 0x01	; 1
    2da8:	8a 30       	cpi	r24, 0x0A	; 10
    2daa:	91 05       	cpc	r25, r1
    2dac:	64 f1       	brlt	.+88     	; 0x2e06 <.L21>
    2dae:	10 92 3a 06 	sts	0x063A, r1	; 0x80063a <termopila+0x7>
    2db2:	10 92 39 06 	sts	0x0639, r1	; 0x800639 <termopila+0x6>
    2db6:	81 e0       	ldi	r24, 0x01	; 1
    2db8:	20 91 3b 06 	lds	r18, 0x063B	; 0x80063b <termopila+0x8>
    2dbc:	30 91 3c 06 	lds	r19, 0x063C	; 0x80063c <termopila+0x9>
    2dc0:	2a 30       	cpi	r18, 0x0A	; 10
    2dc2:	31 05       	cpc	r19, r1
    2dc4:	0c f4       	brge	.+2      	; 0x2dc8 <.L18>
    2dc6:	80 e0       	ldi	r24, 0x00	; 0

00002dc8 <.L18>:
    2dc8:	80 93 cc 05 	sts	0x05CC, r24	; 0x8005cc <e+0x7>
    2dcc:	10 92 3c 06 	sts	0x063C, r1	; 0x80063c <termopila+0x9>
    2dd0:	10 92 3b 06 	sts	0x063B, r1	; 0x80063b <termopila+0x8>
    2dd4:	08 95       	ret

00002dd6 <.L19>:
    2dd6:	90 93 38 06 	sts	0x0638, r25	; 0x800638 <termopila+0x5>
    2dda:	80 93 37 06 	sts	0x0637, r24	; 0x800637 <termopila+0x4>
    2dde:	08 95       	ret

00002de0 <.L20>:
    2de0:	88 60       	ori	r24, 0x08	; 8
    2de2:	80 93 ac 06 	sts	0x06AC, r24	; 0x8006ac <mainflag>
    2de6:	83 e0       	ldi	r24, 0x03	; 3
    2de8:	0e 94 7f 0d 	call	0x1afe	; 0x1afe <ADC_set_reference>
    2dec:	80 e0       	ldi	r24, 0x00	; 0
    2dee:	0e 94 b7 0d 	call	0x1b6e	; 0x1b6e <ADC_start_conv>
    2df2:	80 91 35 06 	lds	r24, 0x0635	; 0x800635 <termopila+0x2>
    2df6:	90 91 36 06 	lds	r25, 0x0636	; 0x800636 <termopila+0x3>
    2dfa:	01 96       	adiw	r24, 0x01	; 1
    2dfc:	90 93 36 06 	sts	0x0636, r25	; 0x800636 <termopila+0x3>
    2e00:	80 93 35 06 	sts	0x0635, r24	; 0x800635 <termopila+0x2>
    2e04:	08 95       	ret

00002e06 <.L21>:
    2e06:	90 93 3a 06 	sts	0x063A, r25	; 0x80063a <termopila+0x7>
    2e0a:	80 93 39 06 	sts	0x0639, r24	; 0x800639 <termopila+0x6>
    2e0e:	08 95       	ret

00002e10 <main>:
    2e10:	cd b7       	in	r28, 0x3d	; 61
    2e12:	de b7       	in	r29, 0x3e	; 62
    2e14:	62 97       	sbiw	r28, 0x12	; 18
    2e16:	0f b6       	in	r0, 0x3f	; 63
    2e18:	f8 94       	cli
    2e1a:	de bf       	out	0x3e, r29	; 62
    2e1c:	0f be       	out	0x3f, r0	; 63
    2e1e:	cd bf       	out	0x3d, r28	; 61
    2e20:	0e 94 90 15 	call	0x2b20	; 0x2b20 <disp7s_init>
    2e24:	46 e0       	ldi	r20, 0x06	; 6
    2e26:	50 e0       	ldi	r21, 0x00	; 0
    2e28:	64 e0       	ldi	r22, 0x04	; 4
    2e2a:	70 e0       	ldi	r23, 0x00	; 0
    2e2c:	8c ee       	ldi	r24, 0xEC	; 236
    2e2e:	96 e0       	ldi	r25, 0x06	; 6
    2e30:	0e 94 da 23 	call	0x47b4	; 0x47b4 <eeprom_read_block>
    2e34:	0e 94 64 16 	call	0x2cc8	; 0x2cc8 <fryer_init>
    2e38:	91 9a       	sbi	0x12, 1	; 18
    2e3a:	90 9a       	sbi	0x12, 0	; 18
    2e3c:	c3 9a       	sbi	0x18, 3	; 24
    2e3e:	96 9a       	sbi	0x12, 6	; 18
    2e40:	d9 9a       	sbi	0x1b, 1	; 27
    2e42:	c0 9a       	sbi	0x18, 0	; 24
    2e44:	db 9a       	sbi	0x1b, 3	; 27
    2e46:	8f e9       	ldi	r24, 0x9F	; 159
    2e48:	9f e0       	ldi	r25, 0x0F	; 15

00002e4a <.L1^B1>:
    2e4a:	01 97       	sbiw	r24, 0x01	; 1
    2e4c:	f1 f7       	brne	.-4      	; 0x2e4a <.L1^B1>
    2e4e:	00 c0       	rjmp	.+0      	; 0x2e50 <L0^A>

00002e50 <L0^A>:
    2e50:	00 00       	nop
    2e52:	0e 94 5e 08 	call	0x10bc	; 0x10bc <ikb_init>
    2e56:	0e 94 57 03 	call	0x6ae	; 0x6ae <pinGetLevel_init>
    2e5a:	c2 98       	cbi	0x18, 2	; 24
    2e5c:	ba 9a       	sbi	0x17, 2	; 23
    2e5e:	47 e0       	ldi	r20, 0x07	; 7
    2e60:	61 e0       	ldi	r22, 0x01	; 1
    2e62:	8f ef       	ldi	r24, 0xFF	; 255
    2e64:	0e 94 9b 0d 	call	0x1b36	; 0x1b36 <ADC_init>
    2e68:	82 e0       	ldi	r24, 0x02	; 2
    2e6a:	0e 94 79 0d 	call	0x1af2	; 0x1af2 <ADC_set_channel>
    2e6e:	36 9a       	sbi	0x06, 6	; 6

00002e70 <.L23>:
    2e70:	34 9b       	sbis	0x06, 4	; 6
    2e72:	fe cf       	rjmp	.-4      	; 0x2e70 <.L23>
    2e74:	34 9a       	sbi	0x06, 4	; 6
    2e76:	33 9a       	sbi	0x06, 3	; 6
    2e78:	80 91 ac 06 	lds	r24, 0x06AC	; 0x8006ac <mainflag>
    2e7c:	87 7f       	andi	r24, 0xF7	; 247
    2e7e:	80 93 ac 06 	sts	0x06AC, r24	; 0x8006ac <mainflag>
    2e82:	c1 9a       	sbi	0x18, 1	; 24
    2e84:	b9 98       	cbi	0x17, 1	; 23
    2e86:	bd 9a       	sbi	0x17, 5	; 23
    2e88:	65 e0       	ldi	r22, 0x05	; 5
    2e8a:	88 e3       	ldi	r24, 0x38	; 56
    2e8c:	90 e0       	ldi	r25, 0x00	; 0
    2e8e:	0e 94 45 07 	call	0xe8a	; 0xe8a <indicator_setPortPin>
    2e92:	8b e4       	ldi	r24, 0x4B	; 75
    2e94:	90 e0       	ldi	r25, 0x00	; 0
    2e96:	0e 94 4b 07 	call	0xe96	; 0xe96 <indicatorTimed_setKSysTickTime_ms>
    2e9a:	12 be       	out	0x32, r1	; 50
    2e9c:	8b e0       	ldi	r24, 0x0B	; 11
    2e9e:	83 bf       	out	0x33, r24	; 51
    2ea0:	89 ef       	ldi	r24, 0xF9	; 249
    2ea2:	8c bf       	out	0x3c, r24	; 60
    2ea4:	89 b7       	in	r24, 0x39	; 57
    2ea6:	82 60       	ori	r24, 0x02	; 2
    2ea8:	89 bf       	out	0x39, r24	; 57
    2eaa:	78 94       	sei
    2eac:	0e 94 b3 15 	call	0x2b66	; 0x2b66 <mypid0_set>
    2eb0:	0e 94 c9 13 	call	0x2792	; 0x2792 <disp7s_clear_all>
    2eb4:	44 e0       	ldi	r20, 0x04	; 4
    2eb6:	50 e0       	ldi	r21, 0x00	; 0
    2eb8:	6b e9       	ldi	r22, 0x9B	; 155
    2eba:	74 e0       	ldi	r23, 0x04	; 4
    2ebc:	ce 01       	movw	r24, r28
    2ebe:	01 96       	adiw	r24, 0x01	; 1
    2ec0:	0e 94 c2 23 	call	0x4784	; 0x4784 <strncpy>
    2ec4:	44 e0       	ldi	r20, 0x04	; 4
    2ec6:	60 e0       	ldi	r22, 0x00	; 0
    2ec8:	ce 01       	movw	r24, r28
    2eca:	01 96       	adiw	r24, 0x01	; 1
    2ecc:	0e 94 85 13 	call	0x270a	; 0x270a <disp7s_update_data_array>
    2ed0:	44 e0       	ldi	r20, 0x04	; 4
    2ed2:	50 e0       	ldi	r21, 0x00	; 0
    2ed4:	67 e9       	ldi	r22, 0x97	; 151
    2ed6:	74 e0       	ldi	r23, 0x04	; 4
    2ed8:	ce 01       	movw	r24, r28
    2eda:	01 96       	adiw	r24, 0x01	; 1
    2edc:	0e 94 c2 23 	call	0x4784	; 0x4784 <strncpy>
    2ee0:	44 e0       	ldi	r20, 0x04	; 4
    2ee2:	64 e0       	ldi	r22, 0x04	; 4
    2ee4:	ce 01       	movw	r24, r28
    2ee6:	01 96       	adiw	r24, 0x01	; 1
    2ee8:	0e 94 85 13 	call	0x270a	; 0x270a <disp7s_update_data_array>
    2eec:	00 e0       	ldi	r16, 0x00	; 0
    2eee:	10 e0       	ldi	r17, 0x00	; 0
    2ef0:	c1 2c       	mov	r12, r1
    2ef2:	d1 2c       	mov	r13, r1
    2ef4:	e1 2c       	mov	r14, r1
    2ef6:	f1 2c       	mov	r15, r1
    2ef8:	a0 90 15 05 	lds	r10, 0x0515	; 0x800515 <main_schedule_reset>
    2efc:	b0 90 16 05 	lds	r11, 0x0516	; 0x800516 <main_schedule_reset+0x1>
    2f00:	90 90 14 05 	lds	r9, 0x0514	; 0x800514 <ps_reset>
    2f04:	2c c0       	rjmp	.+88     	; 0x2f5e <.L51>

00002f06 <.L25>:
    2f06:	80 91 ab 06 	lds	r24, 0x06AB	; 0x8006ab <main_schedule+0x1>
    2f0a:	86 ff       	sbrs	r24, 6
    2f0c:	21 c0       	rjmp	.+66     	; 0x2f50 <.L28>

00002f0e <.L26>:
    2f0e:	0e 94 8e 10 	call	0x211c	; 0x211c <temperature_job>
    2f12:	88 23       	and	r24, r24
    2f14:	39 f0       	breq	.+14     	; 0x2f24 <.L29>
    2f16:	80 91 ab 06 	lds	r24, 0x06AB	; 0x8006ab <main_schedule+0x1>
    2f1a:	82 60       	ori	r24, 0x02	; 2
    2f1c:	80 93 ab 06 	sts	0x06AB, r24	; 0x8006ab <main_schedule+0x1>
    2f20:	10 92 ca 05 	sts	0x05CA, r1	; 0x8005ca <e+0x5>

00002f24 <.L29>:
    2f24:	86 b3       	in	r24, 0x16	; 22
    2f26:	86 95       	lsr	r24
    2f28:	81 70       	andi	r24, 0x01	; 1
    2f2a:	80 93 ce 05 	sts	0x05CE, r24	; 0x8005ce <e+0x9>
    2f2e:	80 91 ac 06 	lds	r24, 0x06AC	; 0x8006ac <mainflag>
    2f32:	80 ff       	sbrs	r24, 0
    2f34:	08 c0       	rjmp	.+16     	; 0x2f46 <.L30>
    2f36:	8f ef       	ldi	r24, 0xFF	; 255
    2f38:	e8 1a       	sub	r14, r24
    2f3a:	f8 0a       	sbc	r15, r24
    2f3c:	94 e1       	ldi	r25, 0x14	; 20
    2f3e:	e9 16       	cp	r14, r25
    2f40:	f1 04       	cpc	r15, r1
    2f42:	09 f4       	brne	.+2      	; 0x2f46 <.L30>

00002f44 <L0^A>:
    2f44:	7c c0       	rjmp	.+248    	; 0x303e <.L84>

00002f46 <.L30>:
    2f46:	80 91 ab 06 	lds	r24, 0x06AB	; 0x8006ab <main_schedule+0x1>
    2f4a:	85 70       	andi	r24, 0x05	; 5
    2f4c:	85 30       	cpi	r24, 0x05	; 5
    2f4e:	79 f1       	breq	.+94     	; 0x2fae <.L85>

00002f50 <.L28>:
    2f50:	0e 94 8e 07 	call	0xf1c	; 0xf1c <indicatorTimed_job>
    2f54:	80 91 ac 06 	lds	r24, 0x06AC	; 0x8006ac <mainflag>
    2f58:	8e 7f       	andi	r24, 0xFE	; 254
    2f5a:	80 93 ac 06 	sts	0x06AC, r24	; 0x8006ac <mainflag>

00002f5e <.L51>:
    2f5e:	80 91 ae 06 	lds	r24, 0x06AE	; 0x8006ae <isr_flag>
    2f62:	80 ff       	sbrs	r24, 0
    2f64:	0a c0       	rjmp	.+20     	; 0x2f7a <.L24>
    2f66:	80 91 ae 06 	lds	r24, 0x06AE	; 0x8006ae <isr_flag>
    2f6a:	8e 7f       	andi	r24, 0xFE	; 254
    2f6c:	80 93 ae 06 	sts	0x06AE, r24	; 0x8006ae <isr_flag>
    2f70:	80 91 ac 06 	lds	r24, 0x06AC	; 0x8006ac <mainflag>
    2f74:	81 60       	ori	r24, 0x01	; 1
    2f76:	80 93 ac 06 	sts	0x06AC, r24	; 0x8006ac <mainflag>

00002f7a <.L24>:
    2f7a:	80 91 ac 06 	lds	r24, 0x06AC	; 0x8006ac <mainflag>
    2f7e:	80 ff       	sbrs	r24, 0
    2f80:	c2 cf       	rjmp	.-124    	; 0x2f06 <.L25>
    2f82:	0e 94 f4 12 	call	0x25e8	; 0x25e8 <disp7s_job>
    2f86:	80 91 ab 06 	lds	r24, 0x06AB	; 0x8006ab <main_schedule+0x1>
    2f8a:	86 fd       	sbrc	r24, 6
    2f8c:	c0 cf       	rjmp	.-128    	; 0x2f0e <.L26>
    2f8e:	90 91 ac 06 	lds	r25, 0x06AC	; 0x8006ac <mainflag>
    2f92:	90 ff       	sbrs	r25, 0
    2f94:	dd cf       	rjmp	.-70     	; 0x2f50 <.L28>
    2f96:	0f 5f       	subi	r16, 0xFF	; 255
    2f98:	1f 4f       	sbci	r17, 0xFF	; 255
    2f9a:	08 3b       	cpi	r16, 0xB8	; 184
    2f9c:	9b e0       	ldi	r25, 0x0B	; 11
    2f9e:	19 07       	cpc	r17, r25
    2fa0:	bc f2       	brlt	.-82     	; 0x2f50 <.L28>
    2fa2:	80 64       	ori	r24, 0x40	; 64
    2fa4:	80 93 ab 06 	sts	0x06AB, r24	; 0x8006ab <main_schedule+0x1>
    2fa8:	00 e0       	ldi	r16, 0x00	; 0
    2faa:	10 e0       	ldi	r17, 0x00	; 0
    2fac:	d1 cf       	rjmp	.-94     	; 0x2f50 <.L28>

00002fae <.L85>:
    2fae:	0e 94 56 0c 	call	0x18ac	; 0x18ac <error_job>
    2fb2:	81 11       	cpse	r24, r1
    2fb4:	cd cf       	rjmp	.-102    	; 0x2f50 <.L28>
    2fb6:	90 91 aa 06 	lds	r25, 0x06AA	; 0x8006aa <main_schedule>
    2fba:	99 23       	and	r25, r25
    2fbc:	09 f4       	brne	.+2      	; 0x2fc0 <L0^A+0x2>

00002fbe <L0^A>:
    2fbe:	81 c0       	rjmp	.+258    	; 0x30c2 <.L86>
    2fc0:	80 91 a6 06 	lds	r24, 0x06A6	; 0x8006a6 <fryer+0x35>
    2fc4:	91 30       	cpi	r25, 0x01	; 1
    2fc6:	09 f4       	brne	.+2      	; 0x2fca <L0^A+0x2>

00002fc8 <L0^A>:
    2fc8:	a8 c0       	rjmp	.+336    	; 0x311a <.L87>
    2fca:	92 30       	cpi	r25, 0x02	; 2
    2fcc:	09 f4       	brne	.+2      	; 0x2fd0 <.L38>

00002fce <L0^A>:
    2fce:	e2 c0       	rjmp	.+452    	; 0x3194 <.L88>

00002fd0 <.L38>:
    2fd0:	82 30       	cpi	r24, 0x02	; 2
    2fd2:	08 f4       	brcc	.+2      	; 0x2fd6 <L0^A+0x2>

00002fd4 <L0^A>:
    2fd4:	90 c0       	rjmp	.+288    	; 0x30f6 <.L36>
    2fd6:	82 30       	cpi	r24, 0x02	; 2
    2fd8:	09 f4       	brne	.+2      	; 0x2fdc <.L41>

00002fda <L0^A>:
    2fda:	97 c0       	rjmp	.+302    	; 0x310a <.L89>

00002fdc <.L41>:
    2fdc:	83 30       	cpi	r24, 0x03	; 3
    2fde:	09 f4       	brne	.+2      	; 0x2fe2 <.L45>

00002fe0 <L0^A>:
    2fe0:	a0 c0       	rjmp	.+320    	; 0x3122 <.L90>

00002fe2 <.L45>:
    2fe2:	80 91 a5 06 	lds	r24, 0x06A5	; 0x8006a5 <fryer+0x34>
    2fe6:	82 fd       	sbrc	r24, 2
    2fe8:	69 c0       	rjmp	.+210    	; 0x30bc <.L91>

00002fea <.L48>:
    2fea:	60 91 ec 06 	lds	r22, 0x06EC	; 0x8006ec <tmprture_coccion>
    2fee:	70 91 ed 06 	lds	r23, 0x06ED	; 0x8006ed <tmprture_coccion+0x1>
    2ff2:	80 91 21 06 	lds	r24, 0x0621	; 0x800621 <TCtemperature>
    2ff6:	90 91 22 06 	lds	r25, 0x0622	; 0x800622 <TCtemperature+0x1>
    2ffa:	68 1b       	sub	r22, r24
    2ffc:	79 0b       	sbc	r23, r25
    2ffe:	91 e0       	ldi	r25, 0x01	; 1
    3000:	80 e0       	ldi	r24, 0x00	; 0
    3002:	66 30       	cpi	r22, 0x06	; 6
    3004:	71 05       	cpc	r23, r1
    3006:	14 f0       	brlt	.+4      	; 0x300c <.L49>
    3008:	9a e0       	ldi	r25, 0x0A	; 10
    300a:	80 e0       	ldi	r24, 0x00	; 0

0000300c <.L49>:
    300c:	90 93 45 06 	sts	0x0645, r25	; 0x800645 <mypid0+0x8>
    3010:	80 93 46 06 	sts	0x0646, r24	; 0x800646 <mypid0+0x9>
    3014:	8d e3       	ldi	r24, 0x3D	; 61
    3016:	96 e0       	ldi	r25, 0x06	; 6
    3018:	0e 94 2d 06 	call	0xc5a	; 0xc5a <pid_job>
    301c:	80 91 ac 06 	lds	r24, 0x06AC	; 0x8006ac <mainflag>
    3020:	80 ff       	sbrs	r24, 0
    3022:	96 cf       	rjmp	.-212    	; 0x2f50 <.L28>
    3024:	8f ef       	ldi	r24, 0xFF	; 255
    3026:	c8 1a       	sub	r12, r24
    3028:	d8 0a       	sbc	r13, r24
    302a:	94 e1       	ldi	r25, 0x14	; 20
    302c:	c9 16       	cp	r12, r25
    302e:	d1 04       	cpc	r13, r1
    3030:	09 f0       	breq	.+2      	; 0x3034 <L0^A+0x2>

00003032 <L0^A>:
    3032:	8e cf       	rjmp	.-228    	; 0x2f50 <.L28>
    3034:	0e 94 e9 0b 	call	0x17d2	; 0x17d2 <ikb_job>
    3038:	c1 2c       	mov	r12, r1
    303a:	d1 2c       	mov	r13, r1
    303c:	89 cf       	rjmp	.-238    	; 0x2f50 <.L28>

0000303e <.L84>:
    303e:	0e 94 75 03 	call	0x6ea	; 0x6ea <pinGetLevel_job>
    3042:	80 91 1b 05 	lds	r24, 0x051B	; 0x80051b <pinGetLevel+0x1>
    3046:	83 fd       	sbrc	r24, 3
    3048:	03 c0       	rjmp	.+6      	; 0x3050 <.L92>

0000304a <.L31>:
    304a:	e1 2c       	mov	r14, r1
    304c:	f1 2c       	mov	r15, r1
    304e:	7b cf       	rjmp	.-266    	; 0x2f46 <.L30>

00003050 <.L92>:
    3050:	87 7f       	andi	r24, 0xF7	; 247
    3052:	80 93 1b 05 	sts	0x051B, r24	; 0x80051b <pinGetLevel+0x1>
    3056:	80 91 ab 06 	lds	r24, 0x06AB	; 0x8006ab <main_schedule+0x1>
    305a:	84 60       	ori	r24, 0x04	; 4
    305c:	80 93 ab 06 	sts	0x06AB, r24	; 0x8006ab <main_schedule+0x1>
    3060:	8b e4       	ldi	r24, 0x4B	; 75
    3062:	90 e0       	ldi	r25, 0x00	; 0
    3064:	0e 94 4b 07 	call	0xe96	; 0xe96 <indicatorTimed_setKSysTickTime_ms>
    3068:	0e 94 50 07 	call	0xea0	; 0xea0 <indicatorTimed_run>
    306c:	0e 94 c9 13 	call	0x2792	; 0x2792 <disp7s_clear_all>
    3070:	80 91 1b 05 	lds	r24, 0x051B	; 0x80051b <pinGetLevel+0x1>
    3074:	81 fd       	sbrc	r24, 1
    3076:	bd c0       	rjmp	.+378    	; 0x31f2 <.L32>
    3078:	60 91 ec 06 	lds	r22, 0x06EC	; 0x8006ec <tmprture_coccion>
    307c:	70 91 ed 06 	lds	r23, 0x06ED	; 0x8006ed <tmprture_coccion+0x1>
    3080:	80 91 21 06 	lds	r24, 0x0621	; 0x800621 <TCtemperature>
    3084:	90 91 22 06 	lds	r25, 0x0622	; 0x800622 <TCtemperature+0x1>
    3088:	68 1b       	sub	r22, r24
    308a:	79 0b       	sbc	r23, r25
    308c:	81 e0       	ldi	r24, 0x01	; 1
    308e:	90 e0       	ldi	r25, 0x00	; 0
    3090:	66 30       	cpi	r22, 0x06	; 6
    3092:	71 05       	cpc	r23, r1
    3094:	0c f0       	brlt	.+2      	; 0x3098 <.L33>

00003096 <L0^A>:
    3096:	61 c0       	rjmp	.+194    	; 0x315a <.L93>

00003098 <.L33>:
    3098:	90 93 46 06 	sts	0x0646, r25	; 0x800646 <mypid0+0x9>
    309c:	80 93 45 06 	sts	0x0645, r24	; 0x800645 <mypid0+0x8>
    30a0:	8d e3       	ldi	r24, 0x3D	; 61
    30a2:	96 e0       	ldi	r25, 0x06	; 6
    30a4:	0e 94 02 04 	call	0x804	; 0x804 <pid_find_ktop_ms>
    30a8:	8d e3       	ldi	r24, 0x3D	; 61
    30aa:	96 e0       	ldi	r25, 0x06	; 6
    30ac:	0e 94 e9 03 	call	0x7d2	; 0x7d2 <pid_pwm_stablish_levelpin>
    30b0:	80 91 ab 06 	lds	r24, 0x06AB	; 0x8006ab <main_schedule+0x1>
    30b4:	81 60       	ori	r24, 0x01	; 1
    30b6:	80 93 ab 06 	sts	0x06AB, r24	; 0x8006ab <main_schedule+0x1>
    30ba:	c7 cf       	rjmp	.-114    	; 0x304a <.L31>

000030bc <.L91>:
    30bc:	0e 94 23 1f 	call	0x3e46	; 0x3e46 <psmode_operative>
    30c0:	94 cf       	rjmp	.-216    	; 0x2fea <.L48>

000030c2 <.L86>:
    30c2:	85 e7       	ldi	r24, 0x75	; 117
    30c4:	96 e0       	ldi	r25, 0x06	; 6
    30c6:	0e 94 fe 15 	call	0x2bfc	; 0x2bfc <kbmode_default>
    30ca:	8f e8       	ldi	r24, 0x8F	; 143
    30cc:	96 e0       	ldi	r25, 0x06	; 6
    30ce:	0e 94 fe 15 	call	0x2bfc	; 0x2bfc <kbmode_default>
    30d2:	44 e0       	ldi	r20, 0x04	; 4
    30d4:	60 e0       	ldi	r22, 0x00	; 0
    30d6:	8f ea       	ldi	r24, 0xAF	; 175
    30d8:	94 e0       	ldi	r25, 0x04	; 4
    30da:	0e 94 85 13 	call	0x270a	; 0x270a <disp7s_update_data_array>
    30de:	80 91 a5 06 	lds	r24, 0x06A5	; 0x8006a5 <fryer+0x34>
    30e2:	81 60       	ori	r24, 0x01	; 1
    30e4:	80 93 a5 06 	sts	0x06A5, r24	; 0x8006a5 <fryer+0x34>
    30e8:	10 92 a6 06 	sts	0x06A6, r1	; 0x8006a6 <fryer+0x35>
    30ec:	80 91 aa 06 	lds	r24, 0x06AA	; 0x8006aa <main_schedule>
    30f0:	8f 5f       	subi	r24, 0xFF	; 255
    30f2:	80 93 aa 06 	sts	0x06AA, r24	; 0x8006aa <main_schedule>

000030f6 <.L36>:
    30f6:	83 e0       	ldi	r24, 0x03	; 3
    30f8:	0e 94 4c 09 	call	0x1298	; 0x1298 <ikb_key_is_ready2read>
    30fc:	81 11       	cpse	r24, r1
    30fe:	30 c0       	rjmp	.+96     	; 0x3160 <.L94>

00003100 <.L81>:
    3100:	80 91 a6 06 	lds	r24, 0x06A6	; 0x8006a6 <fryer+0x35>
    3104:	82 30       	cpi	r24, 0x02	; 2
    3106:	09 f0       	breq	.+2      	; 0x310a <.L89>

00003108 <L0^A>:
    3108:	69 cf       	rjmp	.-302    	; 0x2fdc <.L41>

0000310a <.L89>:
    310a:	0e 94 5b 1f 	call	0x3eb6	; 0x3eb6 <psmode_program>
    310e:	81 30       	cpi	r24, 0x01	; 1
    3110:	09 f4       	brne	.+2      	; 0x3114 <.L83>

00003112 <L0^A>:
    3112:	9a c0       	rjmp	.+308    	; 0x3248 <.L42>

00003114 <.L83>:
    3114:	80 91 a6 06 	lds	r24, 0x06A6	; 0x8006a6 <fryer+0x35>
    3118:	61 cf       	rjmp	.-318    	; 0x2fdc <.L41>

0000311a <.L87>:
    311a:	92 e0       	ldi	r25, 0x02	; 2
    311c:	90 93 aa 06 	sts	0x06AA, r25	; 0x8006aa <main_schedule>
    3120:	57 cf       	rjmp	.-338    	; 0x2fd0 <.L38>

00003122 <.L90>:
    3122:	0e 94 af 20 	call	0x415e	; 0x415e <psmode_viewTemp>
    3126:	81 30       	cpi	r24, 0x01	; 1
    3128:	09 f0       	breq	.+2      	; 0x312c <L0^A+0x2>

0000312a <L0^A>:
    312a:	5b cf       	rjmp	.-330    	; 0x2fe2 <.L45>
    312c:	90 91 a5 06 	lds	r25, 0x06A5	; 0x8006a5 <fryer+0x34>
    3130:	90 ff       	sbrs	r25, 0
    3132:	b8 c0       	rjmp	.+368    	; 0x32a4 <.L47>
    3134:	10 92 a6 06 	sts	0x06A6, r1	; 0x8006a6 <fryer+0x35>
    3138:	85 e7       	ldi	r24, 0x75	; 117
    313a:	96 e0       	ldi	r25, 0x06	; 6
    313c:	0e 94 fe 15 	call	0x2bfc	; 0x2bfc <kbmode_default>
    3140:	8f e8       	ldi	r24, 0x8F	; 143
    3142:	96 e0       	ldi	r25, 0x06	; 6
    3144:	0e 94 fe 15 	call	0x2bfc	; 0x2bfc <kbmode_default>
    3148:	0e 94 c9 13 	call	0x2792	; 0x2792 <disp7s_clear_all>
    314c:	44 e0       	ldi	r20, 0x04	; 4
    314e:	60 e0       	ldi	r22, 0x00	; 0
    3150:	8f ea       	ldi	r24, 0xAF	; 175
    3152:	94 e0       	ldi	r25, 0x04	; 4
    3154:	0e 94 85 13 	call	0x270a	; 0x270a <disp7s_update_data_array>
    3158:	44 cf       	rjmp	.-376    	; 0x2fe2 <.L45>

0000315a <.L93>:
    315a:	8a e0       	ldi	r24, 0x0A	; 10
    315c:	90 e0       	ldi	r25, 0x00	; 0
    315e:	9c cf       	rjmp	.-200    	; 0x3098 <.L33>

00003160 <.L94>:
    3160:	83 e0       	ldi	r24, 0x03	; 3
    3162:	0e 94 60 09 	call	0x12c0	; 0x12c0 <ikb_key_was_read>
    3166:	83 e0       	ldi	r24, 0x03	; 3
    3168:	0e 94 41 09 	call	0x1282	; 0x1282 <ikb_get_AtTimeExpired_BeforeOrAfter>
    316c:	81 30       	cpi	r24, 0x01	; 1
    316e:	09 f4       	brne	.+2      	; 0x3172 <L0^A+0x2>

00003170 <L0^A>:
    3170:	ae c0       	rjmp	.+348    	; 0x32ce <.L95>
    3172:	83 e0       	ldi	r24, 0x03	; 3
    3174:	80 93 a6 06 	sts	0x06A6, r24	; 0x8006a6 <fryer+0x35>
    3178:	90 92 a9 06 	sts	0x06A9, r9	; 0x8006a9 <fryer+0x38>
    317c:	88 ee       	ldi	r24, 0xE8	; 232
    317e:	93 e0       	ldi	r25, 0x03	; 3
    3180:	0e 94 4b 07 	call	0xe96	; 0xe96 <indicatorTimed_setKSysTickTime_ms>
    3184:	0e 94 50 07 	call	0xea0	; 0xea0 <indicatorTimed_run>

00003188 <.L82>:
    3188:	68 e0       	ldi	r22, 0x08	; 8
    318a:	ce 01       	movw	r24, r28
    318c:	0b 96       	adiw	r24, 0x0b	; 11
    318e:	0e 94 95 13 	call	0x272a	; 0x272a <disp7s_save_data_array>
    3192:	b6 cf       	rjmp	.-148    	; 0x3100 <.L81>

00003194 <.L88>:
    3194:	81 11       	cpse	r24, r1
    3196:	1c cf       	rjmp	.-456    	; 0x2fd0 <.L38>
    3198:	80 91 21 06 	lds	r24, 0x0621	; 0x800621 <TCtemperature>
    319c:	90 91 22 06 	lds	r25, 0x0622	; 0x800622 <TCtemperature+0x1>
    31a0:	97 fd       	sbrc	r25, 7
    31a2:	a9 cf       	rjmp	.-174    	; 0x30f6 <.L36>
    31a4:	88 ee       	ldi	r24, 0xE8	; 232
    31a6:	93 e0       	ldi	r25, 0x03	; 3
    31a8:	0e 94 4b 07 	call	0xe96	; 0xe96 <indicatorTimed_setKSysTickTime_ms>
    31ac:	0e 94 50 07 	call	0xea0	; 0xea0 <indicatorTimed_run>
    31b0:	80 91 a5 06 	lds	r24, 0x06A5	; 0x8006a5 <fryer+0x34>
    31b4:	8e 7f       	andi	r24, 0xFE	; 254
    31b6:	80 93 a5 06 	sts	0x06A5, r24	; 0x8006a5 <fryer+0x34>
    31ba:	81 e0       	ldi	r24, 0x01	; 1
    31bc:	80 93 a6 06 	sts	0x06A6, r24	; 0x8006a6 <fryer+0x35>
    31c0:	85 e7       	ldi	r24, 0x75	; 117
    31c2:	96 e0       	ldi	r25, 0x06	; 6
    31c4:	0e 94 fe 15 	call	0x2bfc	; 0x2bfc <kbmode_default>
    31c8:	10 92 7a 06 	sts	0x067A, r1	; 0x80067a <fryer+0x9>
    31cc:	8f e8       	ldi	r24, 0x8F	; 143
    31ce:	96 e0       	ldi	r25, 0x06	; 6
    31d0:	0e 94 fe 15 	call	0x2bfc	; 0x2bfc <kbmode_default>
    31d4:	10 92 94 06 	sts	0x0694, r1	; 0x800694 <fryer+0x23>
    31d8:	80 91 a5 06 	lds	r24, 0x06A5	; 0x8006a5 <fryer+0x34>
    31dc:	84 60       	ori	r24, 0x04	; 4
    31de:	80 93 a5 06 	sts	0x06A5, r24	; 0x8006a5 <fryer+0x34>
    31e2:	80 91 aa 06 	lds	r24, 0x06AA	; 0x8006aa <main_schedule>
    31e6:	8f 5f       	subi	r24, 0xFF	; 255
    31e8:	80 93 aa 06 	sts	0x06AA, r24	; 0x8006aa <main_schedule>
    31ec:	80 91 a6 06 	lds	r24, 0x06A6	; 0x8006a6 <fryer+0x35>
    31f0:	ef ce       	rjmp	.-546    	; 0x2fd0 <.L38>

000031f2 <.L32>:
    31f2:	80 91 ab 06 	lds	r24, 0x06AB	; 0x8006ab <main_schedule+0x1>
    31f6:	8e 7f       	andi	r24, 0xFE	; 254
    31f8:	80 93 ab 06 	sts	0x06AB, r24	; 0x8006ab <main_schedule+0x1>
    31fc:	44 e0       	ldi	r20, 0x04	; 4
    31fe:	64 e0       	ldi	r22, 0x04	; 4
    3200:	8f eb       	ldi	r24, 0xBF	; 191
    3202:	94 e0       	ldi	r25, 0x04	; 4
    3204:	0e 94 85 13 	call	0x270a	; 0x270a <disp7s_update_data_array>
    3208:	60 e0       	ldi	r22, 0x00	; 0
    320a:	8d e3       	ldi	r24, 0x3D	; 61
    320c:	96 e0       	ldi	r25, 0x06	; 6
    320e:	0e 94 d5 03 	call	0x7aa	; 0x7aa <pid_pwm_set_pin>
    3212:	0e 94 64 16 	call	0x2cc8	; 0x2cc8 <fryer_init>
    3216:	b0 92 ab 06 	sts	0x06AB, r11	; 0x8006ab <main_schedule+0x1>
    321a:	a0 92 aa 06 	sts	0x06AA, r10	; 0x8006aa <main_schedule>
    321e:	8a e0       	ldi	r24, 0x0A	; 10
    3220:	eb eb       	ldi	r30, 0xBB	; 187
    3222:	f5 e0       	ldi	r31, 0x05	; 5
    3224:	a5 ec       	ldi	r26, 0xC5	; 197
    3226:	b5 e0       	ldi	r27, 0x05	; 5

00003228 <.L^B3>:
    3228:	01 90       	ld	r0, Z+
    322a:	0d 92       	st	X+, r0
    322c:	8a 95       	dec	r24
    322e:	e1 f7       	brne	.-8      	; 0x3228 <.L^B3>
    3230:	0e 94 54 07 	call	0xea8	; 0xea8 <indicatorTimed_stop>
    3234:	8a e0       	ldi	r24, 0x0A	; 10
    3236:	ed ec       	ldi	r30, 0xCD	; 205
    3238:	f4 e0       	ldi	r31, 0x04	; 4
    323a:	a3 e3       	ldi	r26, 0x33	; 51
    323c:	b6 e0       	ldi	r27, 0x06	; 6

0000323e <.L^B4>:
    323e:	01 90       	ld	r0, Z+
    3240:	0d 92       	st	X+, r0
    3242:	8a 95       	dec	r24
    3244:	e1 f7       	brne	.-8      	; 0x323e <.L^B4>
    3246:	01 cf       	rjmp	.-510    	; 0x304a <.L31>

00003248 <.L42>:
    3248:	90 91 a5 06 	lds	r25, 0x06A5	; 0x8006a5 <fryer+0x34>
    324c:	90 ff       	sbrs	r25, 0
    324e:	15 c0       	rjmp	.+42     	; 0x327a <.L43>
    3250:	10 92 a6 06 	sts	0x06A6, r1	; 0x8006a6 <fryer+0x35>
    3254:	85 e7       	ldi	r24, 0x75	; 117
    3256:	96 e0       	ldi	r25, 0x06	; 6
    3258:	0e 94 fe 15 	call	0x2bfc	; 0x2bfc <kbmode_default>
    325c:	8f e8       	ldi	r24, 0x8F	; 143
    325e:	96 e0       	ldi	r25, 0x06	; 6
    3260:	0e 94 fe 15 	call	0x2bfc	; 0x2bfc <kbmode_default>
    3264:	0e 94 c9 13 	call	0x2792	; 0x2792 <disp7s_clear_all>
    3268:	44 e0       	ldi	r20, 0x04	; 4
    326a:	60 e0       	ldi	r22, 0x00	; 0
    326c:	8f ea       	ldi	r24, 0xAF	; 175
    326e:	94 e0       	ldi	r25, 0x04	; 4
    3270:	0e 94 85 13 	call	0x270a	; 0x270a <disp7s_update_data_array>
    3274:	80 91 a6 06 	lds	r24, 0x06A6	; 0x8006a6 <fryer+0x35>
    3278:	b1 ce       	rjmp	.-670    	; 0x2fdc <.L41>

0000327a <.L43>:
    327a:	80 93 a6 06 	sts	0x06A6, r24	; 0x8006a6 <fryer+0x35>
    327e:	85 e7       	ldi	r24, 0x75	; 117
    3280:	96 e0       	ldi	r25, 0x06	; 6
    3282:	0e 94 fe 15 	call	0x2bfc	; 0x2bfc <kbmode_default>
    3286:	10 92 7a 06 	sts	0x067A, r1	; 0x80067a <fryer+0x9>
    328a:	8f e8       	ldi	r24, 0x8F	; 143
    328c:	96 e0       	ldi	r25, 0x06	; 6
    328e:	0e 94 fe 15 	call	0x2bfc	; 0x2bfc <kbmode_default>
    3292:	10 92 94 06 	sts	0x0694, r1	; 0x800694 <fryer+0x23>
    3296:	48 e0       	ldi	r20, 0x08	; 8
    3298:	60 e0       	ldi	r22, 0x00	; 0
    329a:	ce 01       	movw	r24, r28
    329c:	0b 96       	adiw	r24, 0x0b	; 11
    329e:	0e 94 85 13 	call	0x270a	; 0x270a <disp7s_update_data_array>
    32a2:	38 cf       	rjmp	.-400    	; 0x3114 <.L83>

000032a4 <.L47>:
    32a4:	80 93 a6 06 	sts	0x06A6, r24	; 0x8006a6 <fryer+0x35>
    32a8:	85 e7       	ldi	r24, 0x75	; 117
    32aa:	96 e0       	ldi	r25, 0x06	; 6
    32ac:	0e 94 fe 15 	call	0x2bfc	; 0x2bfc <kbmode_default>
    32b0:	10 92 7a 06 	sts	0x067A, r1	; 0x80067a <fryer+0x9>
    32b4:	8f e8       	ldi	r24, 0x8F	; 143
    32b6:	96 e0       	ldi	r25, 0x06	; 6
    32b8:	0e 94 fe 15 	call	0x2bfc	; 0x2bfc <kbmode_default>
    32bc:	10 92 94 06 	sts	0x0694, r1	; 0x800694 <fryer+0x23>
    32c0:	48 e0       	ldi	r20, 0x08	; 8
    32c2:	60 e0       	ldi	r22, 0x00	; 0
    32c4:	ce 01       	movw	r24, r28
    32c6:	0b 96       	adiw	r24, 0x0b	; 11
    32c8:	0e 94 85 13 	call	0x270a	; 0x270a <disp7s_update_data_array>
    32cc:	8a ce       	rjmp	.-748    	; 0x2fe2 <.L45>

000032ce <.L95>:
    32ce:	82 e0       	ldi	r24, 0x02	; 2
    32d0:	80 93 a6 06 	sts	0x06A6, r24	; 0x8006a6 <fryer+0x35>
    32d4:	90 92 a7 06 	sts	0x06A7, r9	; 0x8006a7 <fryer+0x36>
    32d8:	88 ee       	ldi	r24, 0xE8	; 232
    32da:	93 e0       	ldi	r25, 0x03	; 3
    32dc:	0e 94 4b 07 	call	0xe96	; 0xe96 <indicatorTimed_setKSysTickTime_ms>
    32e0:	0e 94 50 07 	call	0xea0	; 0xea0 <indicatorTimed_run>
    32e4:	42 e0       	ldi	r20, 0x02	; 2
    32e6:	50 e0       	ldi	r21, 0x00	; 0
    32e8:	60 e0       	ldi	r22, 0x00	; 0
    32ea:	70 e0       	ldi	r23, 0x00	; 0
    32ec:	89 eb       	ldi	r24, 0xB9	; 185
    32ee:	96 e0       	ldi	r25, 0x06	; 6
    32f0:	0e 94 ea 23 	call	0x47d4	; 0x47d4 <eeprom_update_block>
    32f4:	42 e0       	ldi	r20, 0x02	; 2
    32f6:	50 e0       	ldi	r21, 0x00	; 0
    32f8:	62 e0       	ldi	r22, 0x02	; 2
    32fa:	70 e0       	ldi	r23, 0x00	; 0
    32fc:	83 ed       	ldi	r24, 0xD3	; 211
    32fe:	96 e0       	ldi	r25, 0x06	; 6
    3300:	0e 94 ea 23 	call	0x47d4	; 0x47d4 <eeprom_update_block>
    3304:	41 cf       	rjmp	.-382    	; 0x3188 <.L82>

00003306 <__vector_10>:
    3306:	8f 93       	push	r24
    3308:	8f b7       	in	r24, 0x3f	; 63
    330a:	8f 93       	push	r24
    330c:	80 91 ae 06 	lds	r24, 0x06AE	; 0x8006ae <isr_flag>
    3310:	81 60       	ori	r24, 0x01	; 1
    3312:	80 93 ae 06 	sts	0x06AE, r24	; 0x8006ae <isr_flag>
    3316:	8f 91       	pop	r24
    3318:	8f bf       	out	0x3f, r24	; 63
    331a:	8f 91       	pop	r24
    331c:	18 95       	reti

0000331e <__vector_16>:
    331e:	8f 93       	push	r24
    3320:	8f b7       	in	r24, 0x3f	; 63
    3322:	8f 93       	push	r24
    3324:	80 91 ae 06 	lds	r24, 0x06AE	; 0x8006ae <isr_flag>
    3328:	82 60       	ori	r24, 0x02	; 2
    332a:	80 93 ae 06 	sts	0x06AE, r24	; 0x8006ae <isr_flag>
    332e:	8f 91       	pop	r24
    3330:	8f bf       	out	0x3f, r24	; 63
    3332:	8f 91       	pop	r24
    3334:	18 95       	reti

00003336 <build_cookCycle_string>:
    3336:	ef 92       	push	r14
    3338:	ff 92       	push	r15
    333a:	0f 93       	push	r16
    333c:	1f 93       	push	r17
    333e:	cf 93       	push	r28
    3340:	df 93       	push	r29
    3342:	00 d0       	rcall	.+0      	; 0x3344 <L0^A>

00003344 <L0^A>:
    3344:	cd b7       	in	r28, 0x3d	; 61
    3346:	de b7       	in	r29, 0x3e	; 62
    3348:	7c 01       	movw	r14, r24
    334a:	8b 01       	movw	r16, r22
    334c:	fc 01       	movw	r30, r24
    334e:	80 81       	ld	r24, Z
    3350:	42 e0       	ldi	r20, 0x02	; 2
    3352:	be 01       	movw	r22, r28
    3354:	6f 5f       	subi	r22, 0xFF	; 255
    3356:	7f 4f       	sbci	r23, 0xFF	; 255
    3358:	08 2e       	mov	r0, r24
    335a:	00 0c       	add	r0, r0
    335c:	99 0b       	sbc	r25, r25
    335e:	0e 94 d1 13 	call	0x27a2	; 0x27a2 <integer_to_arraybcd_msb_lsb_paddingleft_blank>
    3362:	8a 81       	ldd	r24, Y+2	; 0x02
    3364:	99 81       	ldd	r25, Y+1	; 0x01
    3366:	f8 01       	movw	r30, r16
    3368:	90 83       	st	Z, r25
    336a:	81 83       	std	Z+1, r24	; 0x01
    336c:	f7 01       	movw	r30, r14
    336e:	81 81       	ldd	r24, Z+1	; 0x01
    3370:	42 e0       	ldi	r20, 0x02	; 2
    3372:	be 01       	movw	r22, r28
    3374:	6f 5f       	subi	r22, 0xFF	; 255
    3376:	7f 4f       	sbci	r23, 0xFF	; 255
    3378:	08 2e       	mov	r0, r24
    337a:	00 0c       	add	r0, r0
    337c:	99 0b       	sbc	r25, r25
    337e:	0e 94 9c 14 	call	0x2938	; 0x2938 <integer_to_arraybcd_msb_lsb_paddingleft_zeroes>
    3382:	78 01       	movw	r14, r16
    3384:	f2 e0       	ldi	r31, 0x02	; 2
    3386:	ef 0e       	add	r14, r31
    3388:	f1 1c       	adc	r15, r1
    338a:	8a 81       	ldd	r24, Y+2	; 0x02
    338c:	99 81       	ldd	r25, Y+1	; 0x01
    338e:	f8 01       	movw	r30, r16
    3390:	92 83       	std	Z+2, r25	; 0x02
    3392:	83 83       	std	Z+3, r24	; 0x03
    3394:	c8 01       	movw	r24, r16
    3396:	01 96       	adiw	r24, 0x01	; 1
    3398:	0e 94 66 15 	call	0x2acc	; 0x2acc <disp7s_decimalpoint_on>
    339c:	c7 01       	movw	r24, r14
    339e:	0e 94 66 15 	call	0x2acc	; 0x2acc <disp7s_decimalpoint_on>
    33a2:	c7 01       	movw	r24, r14
    33a4:	0e 94 3b 13 	call	0x2676	; 0x2676 <disp7s_fix_upsidedown_display>
    33a8:	0f 90       	pop	r0
    33aa:	0f 90       	pop	r0
    33ac:	df 91       	pop	r29
    33ae:	cf 91       	pop	r28
    33b0:	1f 91       	pop	r17
    33b2:	0f 91       	pop	r16
    33b4:	ff 90       	pop	r15
    33b6:	ef 90       	pop	r14
    33b8:	08 95       	ret

000033ba <cookCycle_hotUpdate>:
    33ba:	1f 93       	push	r17
    33bc:	cf 93       	push	r28
    33be:	df 93       	push	r29
    33c0:	cd b7       	in	r28, 0x3d	; 61
    33c2:	de b7       	in	r29, 0x3e	; 62
    33c4:	2a 97       	sbiw	r28, 0x0a	; 10
    33c6:	0f b6       	in	r0, 0x3f	; 63
    33c8:	f8 94       	cli
    33ca:	de bf       	out	0x3e, r29	; 62
    33cc:	0f be       	out	0x3f, r0	; 63
    33ce:	cd bf       	out	0x3d, r28	; 61
    33d0:	dc 01       	movw	r26, r24
    33d2:	fb 01       	movw	r30, r22
    33d4:	49 87       	std	Y+9, r20	; 0x09
    33d6:	5a 87       	std	Y+10, r21	; 0x0a
    33d8:	4c 91       	ld	r20, X
    33da:	3c e3       	ldi	r19, 0x3C	; 60
    33dc:	43 03       	mulsu	r20, r19
    33de:	a0 01       	movw	r20, r0
    33e0:	11 24       	eor	r1, r1
    33e2:	11 96       	adiw	r26, 0x01	; 1
    33e4:	2c 91       	ld	r18, X
    33e6:	42 0f       	add	r20, r18
    33e8:	51 1d       	adc	r21, r1
    33ea:	27 fd       	sbrc	r18, 7
    33ec:	5a 95       	dec	r21
    33ee:	20 81       	ld	r18, Z
    33f0:	23 03       	mulsu	r18, r19
    33f2:	c0 01       	movw	r24, r0
    33f4:	11 24       	eor	r1, r1
    33f6:	21 81       	ldd	r18, Z+1	; 0x01
    33f8:	82 0f       	add	r24, r18
    33fa:	91 1d       	adc	r25, r1
    33fc:	27 fd       	sbrc	r18, 7
    33fe:	9a 95       	dec	r25
    3400:	a9 85       	ldd	r26, Y+9	; 0x09
    3402:	ba 85       	ldd	r27, Y+10	; 0x0a
    3404:	2c 91       	ld	r18, X
    3406:	23 03       	mulsu	r18, r19
    3408:	90 01       	movw	r18, r0
    340a:	11 24       	eor	r1, r1
    340c:	11 96       	adiw	r26, 0x01	; 1
    340e:	6c 91       	ld	r22, X
    3410:	26 0f       	add	r18, r22
    3412:	31 1d       	adc	r19, r1
    3414:	67 fd       	sbrc	r22, 7
    3416:	3a 95       	dec	r19
    3418:	82 1b       	sub	r24, r18
    341a:	93 0b       	sbc	r25, r19
    341c:	48 1b       	sub	r20, r24
    341e:	59 0b       	sbc	r21, r25
    3420:	10 e0       	ldi	r17, 0x00	; 0
    3422:	60 e0       	ldi	r22, 0x00	; 0
    3424:	14 16       	cp	r1, r20
    3426:	15 06       	cpc	r1, r21
    3428:	7c f5       	brge	.+94     	; 0x3488 <.L4>
    342a:	ca 01       	movw	r24, r20
    342c:	55 0f       	add	r21, r21
    342e:	aa 0b       	sbc	r26, r26
    3430:	bb 0b       	sbc	r27, r27
    3432:	8d 83       	std	Y+5, r24	; 0x05
    3434:	9e 83       	std	Y+6, r25	; 0x06
    3436:	af 83       	std	Y+7, r26	; 0x07
    3438:	b8 87       	std	Y+8, r27	; 0x08
    343a:	bc 01       	movw	r22, r24
    343c:	cd 01       	movw	r24, r26
    343e:	0e 94 87 22 	call	0x450e	; 0x450e <__floatsisf>
    3442:	20 e0       	ldi	r18, 0x00	; 0
    3444:	30 e0       	ldi	r19, 0x00	; 0
    3446:	40 e7       	ldi	r20, 0x70	; 112
    3448:	52 e4       	ldi	r21, 0x42	; 66
    344a:	69 83       	std	Y+1, r22	; 0x01
    344c:	7a 83       	std	Y+2, r23	; 0x02
    344e:	8b 83       	std	Y+3, r24	; 0x03
    3450:	9c 83       	std	Y+4, r25	; 0x04
    3452:	69 81       	ldd	r22, Y+1	; 0x01
    3454:	7a 81       	ldd	r23, Y+2	; 0x02
    3456:	8b 81       	ldd	r24, Y+3	; 0x03
    3458:	9c 81       	ldd	r25, Y+4	; 0x04
    345a:	0e 94 dd 21 	call	0x43ba	; 0x43ba <__divsf3>
    345e:	69 83       	std	Y+1, r22	; 0x01
    3460:	7a 83       	std	Y+2, r23	; 0x02
    3462:	8b 83       	std	Y+3, r24	; 0x03
    3464:	9c 83       	std	Y+4, r25	; 0x04
    3466:	69 81       	ldd	r22, Y+1	; 0x01
    3468:	7a 81       	ldd	r23, Y+2	; 0x02
    346a:	8b 81       	ldd	r24, Y+3	; 0x03
    346c:	9c 81       	ldd	r25, Y+4	; 0x04
    346e:	0e 94 4f 22 	call	0x449e	; 0x449e <__fixsfsi>
    3472:	16 2f       	mov	r17, r22
    3474:	6d 81       	ldd	r22, Y+5	; 0x05
    3476:	7e 81       	ldd	r23, Y+6	; 0x06
    3478:	8f 81       	ldd	r24, Y+7	; 0x07
    347a:	98 85       	ldd	r25, Y+8	; 0x08
    347c:	2c e3       	ldi	r18, 0x3C	; 60
    347e:	30 e0       	ldi	r19, 0x00	; 0
    3480:	40 e0       	ldi	r20, 0x00	; 0
    3482:	50 e0       	ldi	r21, 0x00	; 0
    3484:	0e 94 2a 21 	call	0x4254	; 0x4254 <__divmodsi4>

00003488 <.L4>:
    3488:	a9 85       	ldd	r26, Y+9	; 0x09
    348a:	ba 85       	ldd	r27, Y+10	; 0x0a
    348c:	1c 93       	st	X, r17
    348e:	11 96       	adiw	r26, 0x01	; 1
    3490:	6c 93       	st	X, r22
    3492:	2a 96       	adiw	r28, 0x0a	; 10
    3494:	0f b6       	in	r0, 0x3f	; 63
    3496:	f8 94       	cli
    3498:	de bf       	out	0x3e, r29	; 62
    349a:	0f be       	out	0x3f, r0	; 63
    349c:	cd bf       	out	0x3d, r28	; 61
    349e:	df 91       	pop	r29
    34a0:	cf 91       	pop	r28
    34a2:	1f 91       	pop	r17
    34a4:	08 95       	ret

000034a6 <psmode_operative_init>:
    34a6:	7f 92       	push	r7
    34a8:	8f 92       	push	r8
    34aa:	9f 92       	push	r9
    34ac:	af 92       	push	r10
    34ae:	bf 92       	push	r11
    34b0:	cf 92       	push	r12
    34b2:	df 92       	push	r13
    34b4:	ef 92       	push	r14
    34b6:	ff 92       	push	r15
    34b8:	0f 93       	push	r16
    34ba:	1f 93       	push	r17
    34bc:	cf 93       	push	r28
    34be:	df 93       	push	r29
    34c0:	cd b7       	in	r28, 0x3d	; 61
    34c2:	de b7       	in	r29, 0x3e	; 62
    34c4:	66 97       	sbiw	r28, 0x16	; 22
    34c6:	0f b6       	in	r0, 0x3f	; 63
    34c8:	f8 94       	cli
    34ca:	de bf       	out	0x3e, r29	; 62
    34cc:	0f be       	out	0x3f, r0	; 63
    34ce:	cd bf       	out	0x3d, r28	; 61
    34d0:	01 e7       	ldi	r16, 0x71	; 113
    34d2:	16 e0       	ldi	r17, 0x06	; 6
    34d4:	80 e0       	ldi	r24, 0x00	; 0
    34d6:	a8 2e       	mov	r10, r24
    34d8:	80 e0       	ldi	r24, 0x00	; 0
    34da:	b8 2e       	mov	r11, r24
    34dc:	9f ea       	ldi	r25, 0xAF	; 175
    34de:	c9 2e       	mov	r12, r25
    34e0:	96 e0       	ldi	r25, 0x06	; 6
    34e2:	d9 2e       	mov	r13, r25
    34e4:	e1 2c       	mov	r14, r1
    34e6:	f1 2c       	mov	r15, r1
    34e8:	20 e9       	ldi	r18, 0x90	; 144
    34ea:	82 2e       	mov	r8, r18
    34ec:	99 24       	eor	r9, r9
    34ee:	93 94       	inc	r9
    34f0:	3a e1       	ldi	r19, 0x1A	; 26
    34f2:	73 2e       	mov	r7, r19

000034f4 <.L10>:
    34f4:	d8 01       	movw	r26, r16
    34f6:	56 96       	adiw	r26, 0x16	; 22
    34f8:	9c 92       	st	X, r9
    34fa:	8e 92       	st	-X, r8
    34fc:	55 97       	sbiw	r26, 0x15	; 21
    34fe:	42 e0       	ldi	r20, 0x02	; 2
    3500:	50 e0       	ldi	r21, 0x00	; 0
    3502:	b5 01       	movw	r22, r10
    3504:	c8 01       	movw	r24, r16
    3506:	0a 96       	adiw	r24, 0x0a	; 10
    3508:	0e 94 da 23 	call	0x47b4	; 0x47b4 <eeprom_read_block>
    350c:	f8 01       	movw	r30, r16
    350e:	82 85       	ldd	r24, Z+10	; 0x0a
    3510:	93 85       	ldd	r25, Z+11	; 0x0b
    3512:	d6 01       	movw	r26, r12
    3514:	1b 96       	adiw	r26, 0x0b	; 11
    3516:	9c 93       	st	X, r25
    3518:	8e 93       	st	-X, r24
    351a:	1a 97       	sbiw	r26, 0x0a	; 10
    351c:	15 86       	std	Z+13, r1	; 0x0d
    351e:	14 86       	std	Z+12, r1	; 0x0c
    3520:	7e 9c       	mul	r7, r14
    3522:	f0 01       	movw	r30, r0
    3524:	7f 9c       	mul	r7, r15
    3526:	f0 0d       	add	r31, r0
    3528:	11 24       	eor	r1, r1
    352a:	df 01       	movw	r26, r30
    352c:	a1 58       	subi	r26, 0x81	; 129
    352e:	b9 4f       	sbci	r27, 0xF9	; 249
    3530:	8c 91       	ld	r24, X
    3532:	82 60       	ori	r24, 0x02	; 2
    3534:	8c 93       	st	X, r24
    3536:	d8 01       	movw	r26, r16
    3538:	13 96       	adiw	r26, 0x03	; 3
    353a:	1c 92       	st	X, r1
    353c:	13 97       	sbiw	r26, 0x03	; 3
    353e:	ed 58       	subi	r30, 0x8D	; 141
    3540:	f9 4f       	sbci	r31, 0xF9	; 249
    3542:	80 81       	ld	r24, Z
    3544:	81 60       	ori	r24, 0x01	; 1
    3546:	80 83       	st	Z, r24
    3548:	80 91 a6 06 	lds	r24, 0x06A6	; 0x8006a6 <fryer+0x35>
    354c:	81 30       	cpi	r24, 0x01	; 1
    354e:	49 f1       	breq	.+82     	; 0x35a2 <.L19>

00003550 <.L7>:
    3550:	c8 01       	movw	r24, r16
    3552:	04 96       	adiw	r24, 0x04	; 4
    3554:	0e 94 fe 15 	call	0x2bfc	; 0x2bfc <kbmode_default>
    3558:	f8 01       	movw	r30, r16
    355a:	11 86       	std	Z+9, r1	; 0x09
    355c:	ea 94       	dec	r14
    355e:	ef 28       	or	r14, r15
    3560:	61 f0       	breq	.+24     	; 0x357a <.L6>
    3562:	06 5e       	subi	r16, 0xE6	; 230
    3564:	1f 4f       	sbci	r17, 0xFF	; 255
    3566:	82 e0       	ldi	r24, 0x02	; 2
    3568:	a8 0e       	add	r10, r24
    356a:	b1 1c       	adc	r11, r1
    356c:	aa e1       	ldi	r26, 0x1A	; 26
    356e:	ca 0e       	add	r12, r26
    3570:	d1 1c       	adc	r13, r1
    3572:	ee 24       	eor	r14, r14
    3574:	e3 94       	inc	r14
    3576:	f1 2c       	mov	r15, r1
    3578:	bd cf       	rjmp	.-134    	; 0x34f4 <.L10>

0000357a <.L6>:
    357a:	66 96       	adiw	r28, 0x16	; 22
    357c:	0f b6       	in	r0, 0x3f	; 63
    357e:	f8 94       	cli
    3580:	de bf       	out	0x3e, r29	; 62
    3582:	0f be       	out	0x3f, r0	; 63
    3584:	cd bf       	out	0x3d, r28	; 61
    3586:	df 91       	pop	r29
    3588:	cf 91       	pop	r28
    358a:	1f 91       	pop	r17
    358c:	0f 91       	pop	r16
    358e:	ff 90       	pop	r15
    3590:	ef 90       	pop	r14
    3592:	df 90       	pop	r13
    3594:	cf 90       	pop	r12
    3596:	bf 90       	pop	r11
    3598:	af 90       	pop	r10
    359a:	9f 90       	pop	r9
    359c:	8f 90       	pop	r8
    359e:	7f 90       	pop	r7
    35a0:	08 95       	ret

000035a2 <.L19>:
    35a2:	1a 96       	adiw	r26, 0x0a	; 10
    35a4:	8c 91       	ld	r24, X
    35a6:	42 e0       	ldi	r20, 0x02	; 2
    35a8:	be 01       	movw	r22, r28
    35aa:	6b 5e       	subi	r22, 0xEB	; 235
    35ac:	7f 4f       	sbci	r23, 0xFF	; 255
    35ae:	08 2e       	mov	r0, r24
    35b0:	00 0c       	add	r0, r0
    35b2:	99 0b       	sbc	r25, r25
    35b4:	0e 94 d1 13 	call	0x27a2	; 0x27a2 <integer_to_arraybcd_msb_lsb_paddingleft_blank>
    35b8:	8e 89       	ldd	r24, Y+22	; 0x16
    35ba:	9d 89       	ldd	r25, Y+21	; 0x15
    35bc:	99 83       	std	Y+1, r25	; 0x01
    35be:	8a 83       	std	Y+2, r24	; 0x02
    35c0:	f8 01       	movw	r30, r16
    35c2:	83 85       	ldd	r24, Z+11	; 0x0b
    35c4:	42 e0       	ldi	r20, 0x02	; 2
    35c6:	be 01       	movw	r22, r28
    35c8:	6b 5e       	subi	r22, 0xEB	; 235
    35ca:	7f 4f       	sbci	r23, 0xFF	; 255
    35cc:	08 2e       	mov	r0, r24
    35ce:	00 0c       	add	r0, r0
    35d0:	99 0b       	sbc	r25, r25
    35d2:	0e 94 9c 14 	call	0x2938	; 0x2938 <integer_to_arraybcd_msb_lsb_paddingleft_zeroes>
    35d6:	8e 89       	ldd	r24, Y+22	; 0x16
    35d8:	9d 89       	ldd	r25, Y+21	; 0x15
    35da:	9b 83       	std	Y+3, r25	; 0x03
    35dc:	8c 83       	std	Y+4, r24	; 0x04
    35de:	ce 01       	movw	r24, r28
    35e0:	02 96       	adiw	r24, 0x02	; 2
    35e2:	0e 94 66 15 	call	0x2acc	; 0x2acc <disp7s_decimalpoint_on>
    35e6:	ce 01       	movw	r24, r28
    35e8:	03 96       	adiw	r24, 0x03	; 3
    35ea:	0e 94 66 15 	call	0x2acc	; 0x2acc <disp7s_decimalpoint_on>
    35ee:	ce 01       	movw	r24, r28
    35f0:	03 96       	adiw	r24, 0x03	; 3
    35f2:	0e 94 3b 13 	call	0x2676	; 0x2676 <disp7s_fix_upsidedown_display>
    35f6:	44 e0       	ldi	r20, 0x04	; 4
    35f8:	d8 01       	movw	r26, r16
    35fa:	6c 91       	ld	r22, X
    35fc:	ce 01       	movw	r24, r28
    35fe:	01 96       	adiw	r24, 0x01	; 1
    3600:	0e 94 85 13 	call	0x270a	; 0x270a <disp7s_update_data_array>
    3604:	a5 cf       	rjmp	.-182    	; 0x3550 <.L7>

00003606 <p1>:
    3606:	5f 92       	push	r5
    3608:	6f 92       	push	r6
    360a:	7f 92       	push	r7
    360c:	8f 92       	push	r8
    360e:	9f 92       	push	r9
    3610:	af 92       	push	r10
    3612:	bf 92       	push	r11
    3614:	cf 92       	push	r12
    3616:	df 92       	push	r13
    3618:	ef 92       	push	r14
    361a:	ff 92       	push	r15
    361c:	0f 93       	push	r16
    361e:	1f 93       	push	r17
    3620:	cf 93       	push	r28
    3622:	df 93       	push	r29
    3624:	cd b7       	in	r28, 0x3d	; 61
    3626:	de b7       	in	r29, 0x3e	; 62
    3628:	6e 97       	sbiw	r28, 0x1e	; 30
    362a:	0f b6       	in	r0, 0x3f	; 63
    362c:	f8 94       	cli
    362e:	de bf       	out	0x3e, r29	; 62
    3630:	0f be       	out	0x3f, r0	; 63
    3632:	cd bf       	out	0x3d, r28	; 61
    3634:	01 e7       	ldi	r16, 0x71	; 113
    3636:	16 e0       	ldi	r17, 0x06	; 6
    3638:	89 eb       	ldi	r24, 0xB9	; 185
    363a:	c8 2e       	mov	r12, r24
    363c:	86 e0       	ldi	r24, 0x06	; 6
    363e:	d8 2e       	mov	r13, r24
    3640:	90 e0       	ldi	r25, 0x00	; 0
    3642:	a9 2e       	mov	r10, r25
    3644:	90 e0       	ldi	r25, 0x00	; 0
    3646:	b9 2e       	mov	r11, r25
    3648:	e1 2c       	mov	r14, r1
    364a:	f1 2c       	mov	r15, r1
    364c:	2a e1       	ldi	r18, 0x1A	; 26
    364e:	52 2e       	mov	r5, r18

00003650 <.L42>:
    3650:	c8 01       	movw	r24, r16
    3652:	43 96       	adiw	r24, 0x13	; 19
    3654:	0e 94 4e 0d 	call	0x1a9c	; 0x1a9c <blink_set>
    3658:	d8 01       	movw	r26, r16
    365a:	16 96       	adiw	r26, 0x06	; 6
    365c:	8c 91       	ld	r24, X
    365e:	0e 94 4c 09 	call	0x1298	; 0x1298 <ikb_key_is_ready2read>
    3662:	88 23       	and	r24, r24
    3664:	61 f0       	breq	.+24     	; 0x367e <.L21>
    3666:	5e 9c       	mul	r5, r14
    3668:	f0 01       	movw	r30, r0
    366a:	5f 9c       	mul	r5, r15
    366c:	f0 0d       	add	r31, r0
    366e:	11 24       	eor	r1, r1
    3670:	e1 58       	subi	r30, 0x81	; 129
    3672:	f9 4f       	sbci	r31, 0xF9	; 249
    3674:	80 81       	ld	r24, Z
    3676:	82 fd       	sbrc	r24, 2
    3678:	02 c0       	rjmp	.+4      	; 0x367e <.L21>
    367a:	80 ff       	sbrs	r24, 0
    367c:	98 c1       	rjmp	.+816    	; 0x39ae <.L61>

0000367e <.L21>:
    367e:	f8 01       	movw	r30, r16
    3680:	87 81       	ldd	r24, Z+7	; 0x07
    3682:	0e 94 4c 09 	call	0x1298	; 0x1298 <ikb_key_is_ready2read>
    3686:	88 23       	and	r24, r24
    3688:	61 f0       	breq	.+24     	; 0x36a2 <.L23>
    368a:	5e 9c       	mul	r5, r14
    368c:	f0 01       	movw	r30, r0
    368e:	5f 9c       	mul	r5, r15
    3690:	f0 0d       	add	r31, r0
    3692:	11 24       	eor	r1, r1
    3694:	e1 58       	subi	r30, 0x81	; 129
    3696:	f9 4f       	sbci	r31, 0xF9	; 249
    3698:	80 81       	ld	r24, Z
    369a:	82 fd       	sbrc	r24, 2
    369c:	02 c0       	rjmp	.+4      	; 0x36a2 <.L23>
    369e:	80 ff       	sbrs	r24, 0
    36a0:	61 c1       	rjmp	.+706    	; 0x3964 <.L62>

000036a2 <.L23>:
    36a2:	d8 01       	movw	r26, r16
    36a4:	16 96       	adiw	r26, 0x06	; 6
    36a6:	8c 91       	ld	r24, X
    36a8:	0e 94 60 09 	call	0x12c0	; 0x12c0 <ikb_key_was_read>
    36ac:	f8 01       	movw	r30, r16
    36ae:	87 81       	ldd	r24, Z+7	; 0x07
    36b0:	0e 94 60 09 	call	0x12c0	; 0x12c0 <ikb_key_was_read>
    36b4:	d8 01       	movw	r26, r16
    36b6:	19 96       	adiw	r26, 0x09	; 9
    36b8:	8c 91       	ld	r24, X
    36ba:	19 97       	sbiw	r26, 0x09	; 9
    36bc:	88 23       	and	r24, r24
    36be:	09 f4       	brne	.+2      	; 0x36c2 <L0^A+0x2>

000036c0 <L0^A>:
    36c0:	71 c0       	rjmp	.+226    	; 0x37a4 <.L63>
    36c2:	81 30       	cpi	r24, 0x01	; 1
    36c4:	09 f4       	brne	.+2      	; 0x36c8 <.L27>

000036c6 <L0^A>:
    36c6:	24 c1       	rjmp	.+584    	; 0x3910 <.L64>

000036c8 <.L27>:
    36c8:	5e 9c       	mul	r5, r14
    36ca:	c0 01       	movw	r24, r0
    36cc:	5f 9c       	mul	r5, r15
    36ce:	90 0d       	add	r25, r0
    36d0:	11 24       	eor	r1, r1
    36d2:	fc 01       	movw	r30, r24
    36d4:	ee 57       	subi	r30, 0x7E	; 126
    36d6:	f9 4f       	sbci	r31, 0xF9	; 249
    36d8:	20 81       	ld	r18, Z
    36da:	20 fd       	sbrc	r18, 0
    36dc:	2e c0       	rjmp	.+92     	; 0x373a <.L65>

000036de <.L32>:
    36de:	5e 9c       	mul	r5, r14
    36e0:	f0 01       	movw	r30, r0
    36e2:	5f 9c       	mul	r5, r15
    36e4:	f0 0d       	add	r31, r0
    36e6:	11 24       	eor	r1, r1
    36e8:	ed 57       	subi	r30, 0x7D	; 125
    36ea:	f9 4f       	sbci	r31, 0xF9	; 249
    36ec:	80 81       	ld	r24, Z
    36ee:	81 fd       	sbrc	r24, 1
    36f0:	da c0       	rjmp	.+436    	; 0x38a6 <.L41>

000036f2 <.L43>:
    36f2:	06 5e       	subi	r16, 0xE6	; 230
    36f4:	1f 4f       	sbci	r17, 0xFF	; 255
    36f6:	fa e1       	ldi	r31, 0x1A	; 26
    36f8:	cf 0e       	add	r12, r31
    36fa:	d1 1c       	adc	r13, r1
    36fc:	22 e0       	ldi	r18, 0x02	; 2
    36fe:	a2 0e       	add	r10, r18
    3700:	b1 1c       	adc	r11, r1
    3702:	ef 28       	or	r14, r15
    3704:	21 f4       	brne	.+8      	; 0x370e <.L66>
    3706:	ee 24       	eor	r14, r14
    3708:	e3 94       	inc	r14
    370a:	f1 2c       	mov	r15, r1
    370c:	a1 cf       	rjmp	.-190    	; 0x3650 <.L42>

0000370e <.L66>:
    370e:	6e 96       	adiw	r28, 0x1e	; 30
    3710:	0f b6       	in	r0, 0x3f	; 63
    3712:	f8 94       	cli
    3714:	de bf       	out	0x3e, r29	; 62
    3716:	0f be       	out	0x3f, r0	; 63
    3718:	cd bf       	out	0x3d, r28	; 61
    371a:	df 91       	pop	r29
    371c:	cf 91       	pop	r28
    371e:	1f 91       	pop	r17
    3720:	0f 91       	pop	r16
    3722:	ff 90       	pop	r15
    3724:	ef 90       	pop	r14
    3726:	df 90       	pop	r13
    3728:	cf 90       	pop	r12
    372a:	bf 90       	pop	r11
    372c:	af 90       	pop	r10
    372e:	9f 90       	pop	r9
    3730:	8f 90       	pop	r8
    3732:	7f 90       	pop	r7
    3734:	6f 90       	pop	r6
    3736:	5f 90       	pop	r5
    3738:	08 95       	ret

0000373a <.L65>:
    373a:	fc 01       	movw	r30, r24
    373c:	e8 57       	subi	r30, 0x78	; 120
    373e:	f9 4f       	sbci	r31, 0xF9	; 249
    3740:	80 81       	ld	r24, Z
    3742:	81 ff       	sbrs	r24, 1
    3744:	07 c0       	rjmp	.+14     	; 0x3754 <.L34>
    3746:	8d 7f       	andi	r24, 0xFD	; 253
    3748:	80 83       	st	Z, r24
    374a:	90 91 a6 06 	lds	r25, 0x06A6	; 0x8006a6 <fryer+0x35>
    374e:	91 30       	cpi	r25, 0x01	; 1
    3750:	09 f4       	brne	.+2      	; 0x3754 <.L34>

00003752 <L0^A>:
    3752:	57 c1       	rjmp	.+686    	; 0x3a02 <.L67>

00003754 <.L34>:
    3754:	80 91 ac 06 	lds	r24, 0x06AC	; 0x8006ac <mainflag>
    3758:	80 ff       	sbrs	r24, 0
    375a:	c1 cf       	rjmp	.-126    	; 0x36de <.L32>
    375c:	d8 01       	movw	r26, r16
    375e:	1f 96       	adiw	r26, 0x0f	; 15
    3760:	8d 91       	ld	r24, X+
    3762:	9c 91       	ld	r25, X
    3764:	01 96       	adiw	r24, 0x01	; 1
    3766:	88 3b       	cpi	r24, 0xB8	; 184
    3768:	bb e0       	ldi	r27, 0x0B	; 11
    376a:	9b 07       	cpc	r25, r27
    376c:	0c f4       	brge	.+2      	; 0x3770 <L0^A+0x2>

0000376e <L0^A>:
    376e:	f6 c0       	rjmp	.+492    	; 0x395c <.L68>
    3770:	d8 01       	movw	r26, r16
    3772:	50 96       	adiw	r26, 0x10	; 16
    3774:	1c 92       	st	X, r1
    3776:	1e 92       	st	-X, r1
    3778:	1f 97       	sbiw	r26, 0x0f	; 15
    377a:	8a e1       	ldi	r24, 0x1A	; 26
    377c:	8e 9d       	mul	r24, r14
    377e:	90 01       	movw	r18, r0
    3780:	8f 9d       	mul	r24, r15
    3782:	30 0d       	add	r19, r0
    3784:	11 24       	eor	r1, r1
    3786:	f9 01       	movw	r30, r18
    3788:	ed 57       	subi	r30, 0x7D	; 125
    378a:	f9 4f       	sbci	r31, 0xF9	; 249
    378c:	80 81       	ld	r24, Z
    378e:	82 60       	ori	r24, 0x02	; 2
    3790:	80 83       	st	Z, r24
    3792:	21 58       	subi	r18, 0x81	; 129
    3794:	39 4f       	sbci	r19, 0xF9	; 249
    3796:	d9 01       	movw	r26, r18
    3798:	9c 91       	ld	r25, X
    379a:	90 fd       	sbrc	r25, 0
    379c:	29 c0       	rjmp	.+82     	; 0x37f0 <.L69>
    379e:	8e 7f       	andi	r24, 0xFE	; 254
    37a0:	80 83       	st	Z, r24
    37a2:	9d cf       	rjmp	.-198    	; 0x36de <.L32>

000037a4 <.L63>:
    37a4:	14 96       	adiw	r26, 0x04	; 4
    37a6:	8c 91       	ld	r24, X
    37a8:	0e 94 4c 09 	call	0x1298	; 0x1298 <ikb_key_is_ready2read>
    37ac:	88 23       	and	r24, r24
    37ae:	09 f4       	brne	.+2      	; 0x37b2 <L0^A+0x2>

000037b0 <L0^A>:
    37b0:	8b cf       	rjmp	.-234    	; 0x36c8 <.L27>
    37b2:	f8 01       	movw	r30, r16
    37b4:	84 81       	ldd	r24, Z+4	; 0x04
    37b6:	0e 94 60 09 	call	0x12c0	; 0x12c0 <ikb_key_was_read>
    37ba:	88 ee       	ldi	r24, 0xE8	; 232
    37bc:	93 e0       	ldi	r25, 0x03	; 3
    37be:	0e 94 4b 07 	call	0xe96	; 0xe96 <indicatorTimed_setKSysTickTime_ms>
    37c2:	0e 94 50 07 	call	0xea0	; 0xea0 <indicatorTimed_run>
    37c6:	8a e1       	ldi	r24, 0x1A	; 26
    37c8:	8e 9d       	mul	r24, r14
    37ca:	40 01       	movw	r8, r0
    37cc:	8f 9d       	mul	r24, r15
    37ce:	90 0c       	add	r9, r0
    37d0:	11 24       	eor	r1, r1
    37d2:	f4 01       	movw	r30, r8
    37d4:	ed 57       	subi	r30, 0x7D	; 125
    37d6:	f9 4f       	sbci	r31, 0xF9	; 249
    37d8:	80 81       	ld	r24, Z
    37da:	80 fd       	sbrc	r24, 0
    37dc:	22 c1       	rjmp	.+580    	; 0x3a22 <.L28>
    37de:	81 60       	ori	r24, 0x01	; 1
    37e0:	80 83       	st	Z, r24
    37e2:	f4 01       	movw	r30, r8
    37e4:	e1 58       	subi	r30, 0x81	; 129
    37e6:	f9 4f       	sbci	r31, 0xF9	; 249
    37e8:	80 81       	ld	r24, Z
    37ea:	81 60       	ori	r24, 0x01	; 1
    37ec:	80 83       	st	Z, r24
    37ee:	6c cf       	rjmp	.-296    	; 0x36c8 <.L27>

000037f0 <.L69>:
    37f0:	f6 01       	movw	r30, r12
    37f2:	40 81       	ld	r20, Z
    37f4:	2c e3       	ldi	r18, 0x3C	; 60
    37f6:	42 03       	mulsu	r20, r18
    37f8:	a0 01       	movw	r20, r0
    37fa:	11 24       	eor	r1, r1
    37fc:	31 81       	ldd	r19, Z+1	; 0x01
    37fe:	43 0f       	add	r20, r19
    3800:	51 1d       	adc	r21, r1
    3802:	37 fd       	sbrc	r19, 7
    3804:	5a 95       	dec	r21
    3806:	d5 01       	movw	r26, r10
    3808:	6c 91       	ld	r22, X
    380a:	62 03       	mulsu	r22, r18
    380c:	b0 01       	movw	r22, r0
    380e:	11 24       	eor	r1, r1
    3810:	11 96       	adiw	r26, 0x01	; 1
    3812:	3c 91       	ld	r19, X
    3814:	63 0f       	add	r22, r19
    3816:	71 1d       	adc	r23, r1
    3818:	37 fd       	sbrc	r19, 7
    381a:	7a 95       	dec	r23
    381c:	f8 01       	movw	r30, r16
    381e:	32 85       	ldd	r19, Z+10	; 0x0a
    3820:	32 03       	mulsu	r19, r18
    3822:	c0 01       	movw	r24, r0
    3824:	11 24       	eor	r1, r1
    3826:	23 85       	ldd	r18, Z+11	; 0x0b
    3828:	82 0f       	add	r24, r18
    382a:	91 1d       	adc	r25, r1
    382c:	27 fd       	sbrc	r18, 7
    382e:	9a 95       	dec	r25
    3830:	68 1b       	sub	r22, r24
    3832:	79 0b       	sbc	r23, r25
    3834:	46 1b       	sub	r20, r22
    3836:	57 0b       	sbc	r21, r23
    3838:	14 16       	cp	r1, r20
    383a:	15 06       	cpc	r1, r21
    383c:	0c f0       	brlt	.+2      	; 0x3840 <L0^A+0x2>

0000383e <L0^A>:
    383e:	8f c1       	rjmp	.+798    	; 0x3b5e <.L70>
    3840:	ca 01       	movw	r24, r20
    3842:	55 0f       	add	r21, r21
    3844:	aa 0b       	sbc	r26, r26
    3846:	bb 0b       	sbc	r27, r27
    3848:	8b 8f       	std	Y+27, r24	; 0x1b
    384a:	9c 8f       	std	Y+28, r25	; 0x1c
    384c:	ad 8f       	std	Y+29, r26	; 0x1d
    384e:	be 8f       	std	Y+30, r27	; 0x1e
    3850:	bc 01       	movw	r22, r24
    3852:	cd 01       	movw	r24, r26
    3854:	0e 94 87 22 	call	0x450e	; 0x450e <__floatsisf>
    3858:	20 e0       	ldi	r18, 0x00	; 0
    385a:	30 e0       	ldi	r19, 0x00	; 0
    385c:	40 e7       	ldi	r20, 0x70	; 112
    385e:	52 e4       	ldi	r21, 0x42	; 66
    3860:	6f 8b       	std	Y+23, r22	; 0x17
    3862:	78 8f       	std	Y+24, r23	; 0x18
    3864:	89 8f       	std	Y+25, r24	; 0x19
    3866:	9a 8f       	std	Y+26, r25	; 0x1a
    3868:	6f 89       	ldd	r22, Y+23	; 0x17
    386a:	78 8d       	ldd	r23, Y+24	; 0x18
    386c:	89 8d       	ldd	r24, Y+25	; 0x19
    386e:	9a 8d       	ldd	r25, Y+26	; 0x1a
    3870:	0e 94 dd 21 	call	0x43ba	; 0x43ba <__divsf3>
    3874:	6f 8b       	std	Y+23, r22	; 0x17
    3876:	78 8f       	std	Y+24, r23	; 0x18
    3878:	89 8f       	std	Y+25, r24	; 0x19
    387a:	9a 8f       	std	Y+26, r25	; 0x1a
    387c:	6f 89       	ldd	r22, Y+23	; 0x17
    387e:	78 8d       	ldd	r23, Y+24	; 0x18
    3880:	89 8d       	ldd	r24, Y+25	; 0x19
    3882:	9a 8d       	ldd	r25, Y+26	; 0x1a
    3884:	0e 94 4f 22 	call	0x449e	; 0x449e <__fixsfsi>
    3888:	d8 01       	movw	r26, r16
    388a:	1a 96       	adiw	r26, 0x0a	; 10
    388c:	6c 93       	st	X, r22
    388e:	6b 8d       	ldd	r22, Y+27	; 0x1b
    3890:	7c 8d       	ldd	r23, Y+28	; 0x1c
    3892:	8d 8d       	ldd	r24, Y+29	; 0x1d
    3894:	9e 8d       	ldd	r25, Y+30	; 0x1e
    3896:	2c e3       	ldi	r18, 0x3C	; 60
    3898:	30 e0       	ldi	r19, 0x00	; 0
    389a:	40 e0       	ldi	r20, 0x00	; 0
    389c:	50 e0       	ldi	r21, 0x00	; 0
    389e:	0e 94 2a 21 	call	0x4254	; 0x4254 <__divmodsi4>
    38a2:	f8 01       	movw	r30, r16
    38a4:	63 87       	std	Z+11, r22	; 0x0b

000038a6 <.L41>:
    38a6:	8a e1       	ldi	r24, 0x1A	; 26
    38a8:	8e 9d       	mul	r24, r14
    38aa:	40 01       	movw	r8, r0
    38ac:	8f 9d       	mul	r24, r15
    38ae:	90 0c       	add	r9, r0
    38b0:	11 24       	eor	r1, r1
    38b2:	f4 01       	movw	r30, r8
    38b4:	ed 57       	subi	r30, 0x7D	; 125
    38b6:	f9 4f       	sbci	r31, 0xF9	; 249
    38b8:	80 81       	ld	r24, Z
    38ba:	8d 7f       	andi	r24, 0xFD	; 253
    38bc:	80 83       	st	Z, r24
    38be:	42 e0       	ldi	r20, 0x02	; 2
    38c0:	50 e0       	ldi	r21, 0x00	; 0
    38c2:	b5 01       	movw	r22, r10
    38c4:	c6 01       	movw	r24, r12
    38c6:	0e 94 ea 23 	call	0x47d4	; 0x47d4 <eeprom_update_block>
    38ca:	d6 01       	movw	r26, r12
    38cc:	8d 91       	ld	r24, X+
    38ce:	9c 91       	ld	r25, X
    38d0:	f8 01       	movw	r30, r16
    38d2:	93 87       	std	Z+11, r25	; 0x0b
    38d4:	82 87       	std	Z+10, r24	; 0x0a
    38d6:	f4 01       	movw	r30, r8
    38d8:	ee 57       	subi	r30, 0x7E	; 126
    38da:	f9 4f       	sbci	r31, 0xF9	; 249
    38dc:	80 81       	ld	r24, Z
    38de:	8e 7f       	andi	r24, 0xFE	; 254
    38e0:	80 83       	st	Z, r24
    38e2:	d8 01       	movw	r26, r16
    38e4:	1d 96       	adiw	r26, 0x0d	; 13
    38e6:	1c 92       	st	X, r1
    38e8:	1e 92       	st	-X, r1
    38ea:	1c 97       	sbiw	r26, 0x0c	; 12
    38ec:	f4 01       	movw	r30, r8
    38ee:	e1 58       	subi	r30, 0x81	; 129
    38f0:	f9 4f       	sbci	r31, 0xF9	; 249
    38f2:	80 81       	ld	r24, Z
    38f4:	82 60       	ori	r24, 0x02	; 2
    38f6:	80 83       	st	Z, r24
    38f8:	13 96       	adiw	r26, 0x03	; 3
    38fa:	1c 92       	st	X, r1
    38fc:	13 97       	sbiw	r26, 0x03	; 3
    38fe:	f4 01       	movw	r30, r8
    3900:	ed 58       	subi	r30, 0x8D	; 141
    3902:	f9 4f       	sbci	r31, 0xF9	; 249
    3904:	80 81       	ld	r24, Z
    3906:	81 60       	ori	r24, 0x01	; 1
    3908:	80 83       	st	Z, r24
    390a:	19 96       	adiw	r26, 0x09	; 9
    390c:	1c 92       	st	X, r1
    390e:	f1 ce       	rjmp	.-542    	; 0x36f2 <.L43>

00003910 <.L64>:
    3910:	14 96       	adiw	r26, 0x04	; 4
    3912:	8c 91       	ld	r24, X
    3914:	0e 94 4c 09 	call	0x1298	; 0x1298 <ikb_key_is_ready2read>
    3918:	88 23       	and	r24, r24
    391a:	09 f4       	brne	.+2      	; 0x391e <L0^A+0x2>

0000391c <L0^A>:
    391c:	d5 ce       	rjmp	.-598    	; 0x36c8 <.L27>
    391e:	f8 01       	movw	r30, r16
    3920:	84 81       	ldd	r24, Z+4	; 0x04
    3922:	0e 94 60 09 	call	0x12c0	; 0x12c0 <ikb_key_was_read>
    3926:	88 ee       	ldi	r24, 0xE8	; 232
    3928:	93 e0       	ldi	r25, 0x03	; 3
    392a:	0e 94 4b 07 	call	0xe96	; 0xe96 <indicatorTimed_setKSysTickTime_ms>
    392e:	0e 94 50 07 	call	0xea0	; 0xea0 <indicatorTimed_run>
    3932:	8a e1       	ldi	r24, 0x1A	; 26
    3934:	8e 9d       	mul	r24, r14
    3936:	f0 01       	movw	r30, r0
    3938:	8f 9d       	mul	r24, r15
    393a:	f0 0d       	add	r31, r0
    393c:	11 24       	eor	r1, r1
    393e:	df 01       	movw	r26, r30
    3940:	af 58       	subi	r26, 0x8F	; 143
    3942:	b9 4f       	sbci	r27, 0xF9	; 249
    3944:	52 96       	adiw	r26, 0x12	; 18
    3946:	8c 91       	ld	r24, X
    3948:	52 97       	sbiw	r26, 0x12	; 18
    394a:	83 60       	ori	r24, 0x03	; 3
    394c:	52 96       	adiw	r26, 0x12	; 18
    394e:	8c 93       	st	X, r24
    3950:	e1 58       	subi	r30, 0x81	; 129
    3952:	f9 4f       	sbci	r31, 0xF9	; 249
    3954:	80 81       	ld	r24, Z
    3956:	81 60       	ori	r24, 0x01	; 1
    3958:	80 83       	st	Z, r24
    395a:	b6 ce       	rjmp	.-660    	; 0x36c8 <.L27>

0000395c <.L68>:
    395c:	f8 01       	movw	r30, r16
    395e:	90 8b       	std	Z+16, r25	; 0x10
    3960:	87 87       	std	Z+15, r24	; 0x0f
    3962:	bd ce       	rjmp	.-646    	; 0x36de <.L32>

00003964 <.L62>:
    3964:	d8 01       	movw	r26, r16
    3966:	17 96       	adiw	r26, 0x07	; 7
    3968:	8c 91       	ld	r24, X
    396a:	0e 94 f9 09 	call	0x13f2	; 0x13f2 <ikb_inReptt>
    396e:	88 23       	and	r24, r24
    3970:	09 f4       	brne	.+2      	; 0x3974 <.L24>

00003972 <L0^A>:
    3972:	b4 c0       	rjmp	.+360    	; 0x3adc <.L71>

00003974 <.L24>:
    3974:	8a e1       	ldi	r24, 0x1A	; 26
    3976:	8e 9d       	mul	r24, r14
    3978:	f0 01       	movw	r30, r0
    397a:	8f 9d       	mul	r24, r15
    397c:	f0 0d       	add	r31, r0
    397e:	11 24       	eor	r1, r1
    3980:	df 01       	movw	r26, r30
    3982:	ad 58       	subi	r26, 0x8D	; 141
    3984:	b9 4f       	sbci	r27, 0xF9	; 249
    3986:	8c 91       	ld	r24, X
    3988:	8e 7f       	andi	r24, 0xFE	; 254
    398a:	8c 93       	st	X, r24
    398c:	ee 57       	subi	r30, 0x7E	; 126
    398e:	f9 4f       	sbci	r31, 0xF9	; 249
    3990:	80 81       	ld	r24, Z
    3992:	81 60       	ori	r24, 0x01	; 1
    3994:	80 83       	st	Z, r24
    3996:	81 e0       	ldi	r24, 0x01	; 1
    3998:	f8 01       	movw	r30, r16
    399a:	81 87       	std	Z+9, r24	; 0x09
    399c:	83 83       	std	Z+3, r24	; 0x03
    399e:	10 8a       	std	Z+16, r1	; 0x10
    39a0:	17 86       	std	Z+15, r1	; 0x0f
    39a2:	0e 94 53 0d 	call	0x1aa6	; 0x1aa6 <blink_reset>
    39a6:	c6 01       	movw	r24, r12
    39a8:	0e 94 5d 01 	call	0x2ba	; 0x2ba <time_inc>
    39ac:	7a ce       	rjmp	.-780    	; 0x36a2 <.L23>

000039ae <.L61>:
    39ae:	f8 01       	movw	r30, r16
    39b0:	86 81       	ldd	r24, Z+6	; 0x06
    39b2:	0e 94 f9 09 	call	0x13f2	; 0x13f2 <ikb_inReptt>
    39b6:	88 23       	and	r24, r24
    39b8:	09 f4       	brne	.+2      	; 0x39bc <.L22>

000039ba <L0^A>:
    39ba:	97 c0       	rjmp	.+302    	; 0x3aea <.L72>

000039bc <.L22>:
    39bc:	8a e1       	ldi	r24, 0x1A	; 26
    39be:	8e 9d       	mul	r24, r14
    39c0:	f0 01       	movw	r30, r0
    39c2:	8f 9d       	mul	r24, r15
    39c4:	f0 0d       	add	r31, r0
    39c6:	11 24       	eor	r1, r1
    39c8:	df 01       	movw	r26, r30
    39ca:	ad 58       	subi	r26, 0x8D	; 141
    39cc:	b9 4f       	sbci	r27, 0xF9	; 249
    39ce:	8c 91       	ld	r24, X
    39d0:	8e 7f       	andi	r24, 0xFE	; 254
    39d2:	8c 93       	st	X, r24
    39d4:	ee 57       	subi	r30, 0x7E	; 126
    39d6:	f9 4f       	sbci	r31, 0xF9	; 249
    39d8:	80 81       	ld	r24, Z
    39da:	81 60       	ori	r24, 0x01	; 1
    39dc:	80 83       	st	Z, r24
    39de:	81 e0       	ldi	r24, 0x01	; 1
    39e0:	d8 01       	movw	r26, r16
    39e2:	19 96       	adiw	r26, 0x09	; 9
    39e4:	8c 93       	st	X, r24
    39e6:	19 97       	sbiw	r26, 0x09	; 9
    39e8:	13 96       	adiw	r26, 0x03	; 3
    39ea:	8c 93       	st	X, r24
    39ec:	13 97       	sbiw	r26, 0x03	; 3
    39ee:	50 96       	adiw	r26, 0x10	; 16
    39f0:	1c 92       	st	X, r1
    39f2:	1e 92       	st	-X, r1
    39f4:	1f 97       	sbiw	r26, 0x0f	; 15
    39f6:	0e 94 53 0d 	call	0x1aa6	; 0x1aa6 <blink_reset>
    39fa:	c6 01       	movw	r24, r12
    39fc:	0e 94 40 01 	call	0x280	; 0x280 <time_dec>
    3a00:	3e ce       	rjmp	.-900    	; 0x367e <.L21>

00003a02 <.L67>:
    3a02:	80 fd       	sbrc	r24, 0
    3a04:	38 c0       	rjmp	.+112    	; 0x3a76 <.L36>
    3a06:	44 e0       	ldi	r20, 0x04	; 4
    3a08:	60 e0       	ldi	r22, 0x00	; 0
    3a0a:	ce 01       	movw	r24, r28
    3a0c:	01 96       	adiw	r24, 0x01	; 1
    3a0e:	0e 94 76 13 	call	0x26ec	; 0x26ec <disp7s_blank_displays>
    3a12:	44 e0       	ldi	r20, 0x04	; 4
    3a14:	d8 01       	movw	r26, r16
    3a16:	6c 91       	ld	r22, X
    3a18:	ce 01       	movw	r24, r28
    3a1a:	01 96       	adiw	r24, 0x01	; 1
    3a1c:	0e 94 85 13 	call	0x270a	; 0x270a <disp7s_update_data_array>
    3a20:	99 ce       	rjmp	.-718    	; 0x3754 <.L34>

00003a22 <.L28>:
    3a22:	8e 7f       	andi	r24, 0xFE	; 254
    3a24:	80 83       	st	Z, r24
    3a26:	c4 01       	movw	r24, r8
    3a28:	81 58       	subi	r24, 0x81	; 129
    3a2a:	99 4f       	sbci	r25, 0xF9	; 249
    3a2c:	3c 01       	movw	r6, r24
    3a2e:	dc 01       	movw	r26, r24
    3a30:	8c 91       	ld	r24, X
    3a32:	8e 7f       	andi	r24, 0xFE	; 254
    3a34:	8c 93       	st	X, r24
    3a36:	42 e0       	ldi	r20, 0x02	; 2
    3a38:	50 e0       	ldi	r21, 0x00	; 0
    3a3a:	b5 01       	movw	r22, r10
    3a3c:	c8 01       	movw	r24, r16
    3a3e:	0a 96       	adiw	r24, 0x0a	; 10
    3a40:	0e 94 da 23 	call	0x47b4	; 0x47b4 <eeprom_read_block>
    3a44:	f8 01       	movw	r30, r16
    3a46:	15 86       	std	Z+13, r1	; 0x0d
    3a48:	14 86       	std	Z+12, r1	; 0x0c
    3a4a:	d3 01       	movw	r26, r6
    3a4c:	8c 91       	ld	r24, X
    3a4e:	82 60       	ori	r24, 0x02	; 2
    3a50:	8c 93       	st	X, r24
    3a52:	13 82       	std	Z+3, r1	; 0x03
    3a54:	f4 01       	movw	r30, r8
    3a56:	ed 58       	subi	r30, 0x8D	; 141
    3a58:	f9 4f       	sbci	r31, 0xF9	; 249
    3a5a:	80 81       	ld	r24, Z
    3a5c:	81 60       	ori	r24, 0x01	; 1
    3a5e:	80 83       	st	Z, r24
    3a60:	8c 91       	ld	r24, X
    3a62:	8b 7f       	andi	r24, 0xFB	; 251
    3a64:	8c 93       	st	X, r24
    3a66:	80 91 a6 06 	lds	r24, 0x06A6	; 0x8006a6 <fryer+0x35>
    3a6a:	81 30       	cpi	r24, 0x01	; 1
    3a6c:	09 f4       	brne	.+2      	; 0x3a70 <.L29>

00003a6e <L0^A>:
    3a6e:	44 c0       	rjmp	.+136    	; 0x3af8 <.L73>

00003a70 <.L29>:
    3a70:	0e 94 7b 07 	call	0xef6	; 0xef6 <indicator_off>
    3a74:	29 ce       	rjmp	.-942    	; 0x36c8 <.L27>

00003a76 <.L36>:
    3a76:	f6 01       	movw	r30, r12
    3a78:	80 81       	ld	r24, Z
    3a7a:	42 e0       	ldi	r20, 0x02	; 2
    3a7c:	be 01       	movw	r22, r28
    3a7e:	6b 5e       	subi	r22, 0xEB	; 235
    3a80:	7f 4f       	sbci	r23, 0xFF	; 255
    3a82:	08 2e       	mov	r0, r24
    3a84:	00 0c       	add	r0, r0
    3a86:	99 0b       	sbc	r25, r25
    3a88:	0e 94 d1 13 	call	0x27a2	; 0x27a2 <integer_to_arraybcd_msb_lsb_paddingleft_blank>
    3a8c:	8e 89       	ldd	r24, Y+22	; 0x16
    3a8e:	9d 89       	ldd	r25, Y+21	; 0x15
    3a90:	99 83       	std	Y+1, r25	; 0x01
    3a92:	8a 83       	std	Y+2, r24	; 0x02
    3a94:	d6 01       	movw	r26, r12
    3a96:	11 96       	adiw	r26, 0x01	; 1
    3a98:	8c 91       	ld	r24, X
    3a9a:	42 e0       	ldi	r20, 0x02	; 2
    3a9c:	be 01       	movw	r22, r28
    3a9e:	6b 5e       	subi	r22, 0xEB	; 235
    3aa0:	7f 4f       	sbci	r23, 0xFF	; 255
    3aa2:	08 2e       	mov	r0, r24
    3aa4:	00 0c       	add	r0, r0
    3aa6:	99 0b       	sbc	r25, r25
    3aa8:	0e 94 9c 14 	call	0x2938	; 0x2938 <integer_to_arraybcd_msb_lsb_paddingleft_zeroes>
    3aac:	8e 89       	ldd	r24, Y+22	; 0x16
    3aae:	9d 89       	ldd	r25, Y+21	; 0x15
    3ab0:	9b 83       	std	Y+3, r25	; 0x03
    3ab2:	8c 83       	std	Y+4, r24	; 0x04
    3ab4:	ce 01       	movw	r24, r28
    3ab6:	02 96       	adiw	r24, 0x02	; 2
    3ab8:	0e 94 66 15 	call	0x2acc	; 0x2acc <disp7s_decimalpoint_on>
    3abc:	ce 01       	movw	r24, r28
    3abe:	03 96       	adiw	r24, 0x03	; 3
    3ac0:	0e 94 66 15 	call	0x2acc	; 0x2acc <disp7s_decimalpoint_on>
    3ac4:	ce 01       	movw	r24, r28
    3ac6:	03 96       	adiw	r24, 0x03	; 3
    3ac8:	0e 94 3b 13 	call	0x2676	; 0x2676 <disp7s_fix_upsidedown_display>
    3acc:	44 e0       	ldi	r20, 0x04	; 4
    3ace:	f8 01       	movw	r30, r16
    3ad0:	60 81       	ld	r22, Z
    3ad2:	ce 01       	movw	r24, r28
    3ad4:	01 96       	adiw	r24, 0x01	; 1
    3ad6:	0e 94 85 13 	call	0x270a	; 0x270a <disp7s_update_data_array>
    3ada:	3c ce       	rjmp	.-904    	; 0x3754 <.L34>

00003adc <.L71>:
    3adc:	8b e4       	ldi	r24, 0x4B	; 75
    3ade:	90 e0       	ldi	r25, 0x00	; 0
    3ae0:	0e 94 4b 07 	call	0xe96	; 0xe96 <indicatorTimed_setKSysTickTime_ms>
    3ae4:	0e 94 50 07 	call	0xea0	; 0xea0 <indicatorTimed_run>
    3ae8:	45 cf       	rjmp	.-374    	; 0x3974 <.L24>

00003aea <.L72>:
    3aea:	8b e4       	ldi	r24, 0x4B	; 75
    3aec:	90 e0       	ldi	r25, 0x00	; 0
    3aee:	0e 94 4b 07 	call	0xe96	; 0xe96 <indicatorTimed_setKSysTickTime_ms>
    3af2:	0e 94 50 07 	call	0xea0	; 0xea0 <indicatorTimed_run>
    3af6:	62 cf       	rjmp	.-316    	; 0x39bc <.L22>

00003af8 <.L73>:
    3af8:	f8 01       	movw	r30, r16
    3afa:	82 85       	ldd	r24, Z+10	; 0x0a
    3afc:	42 e0       	ldi	r20, 0x02	; 2
    3afe:	be 01       	movw	r22, r28
    3b00:	6b 5e       	subi	r22, 0xEB	; 235
    3b02:	7f 4f       	sbci	r23, 0xFF	; 255
    3b04:	08 2e       	mov	r0, r24
    3b06:	00 0c       	add	r0, r0
    3b08:	99 0b       	sbc	r25, r25
    3b0a:	0e 94 d1 13 	call	0x27a2	; 0x27a2 <integer_to_arraybcd_msb_lsb_paddingleft_blank>
    3b0e:	8e 89       	ldd	r24, Y+22	; 0x16
    3b10:	9d 89       	ldd	r25, Y+21	; 0x15
    3b12:	99 83       	std	Y+1, r25	; 0x01
    3b14:	8a 83       	std	Y+2, r24	; 0x02
    3b16:	d8 01       	movw	r26, r16
    3b18:	1b 96       	adiw	r26, 0x0b	; 11
    3b1a:	8c 91       	ld	r24, X
    3b1c:	42 e0       	ldi	r20, 0x02	; 2
    3b1e:	be 01       	movw	r22, r28
    3b20:	6b 5e       	subi	r22, 0xEB	; 235
    3b22:	7f 4f       	sbci	r23, 0xFF	; 255
    3b24:	08 2e       	mov	r0, r24
    3b26:	00 0c       	add	r0, r0
    3b28:	99 0b       	sbc	r25, r25
    3b2a:	0e 94 9c 14 	call	0x2938	; 0x2938 <integer_to_arraybcd_msb_lsb_paddingleft_zeroes>
    3b2e:	8e 89       	ldd	r24, Y+22	; 0x16
    3b30:	9d 89       	ldd	r25, Y+21	; 0x15
    3b32:	9b 83       	std	Y+3, r25	; 0x03
    3b34:	8c 83       	std	Y+4, r24	; 0x04
    3b36:	ce 01       	movw	r24, r28
    3b38:	02 96       	adiw	r24, 0x02	; 2
    3b3a:	0e 94 66 15 	call	0x2acc	; 0x2acc <disp7s_decimalpoint_on>
    3b3e:	ce 01       	movw	r24, r28
    3b40:	03 96       	adiw	r24, 0x03	; 3
    3b42:	0e 94 66 15 	call	0x2acc	; 0x2acc <disp7s_decimalpoint_on>
    3b46:	ce 01       	movw	r24, r28
    3b48:	03 96       	adiw	r24, 0x03	; 3
    3b4a:	0e 94 3b 13 	call	0x2676	; 0x2676 <disp7s_fix_upsidedown_display>
    3b4e:	44 e0       	ldi	r20, 0x04	; 4
    3b50:	f8 01       	movw	r30, r16
    3b52:	60 81       	ld	r22, Z
    3b54:	ce 01       	movw	r24, r28
    3b56:	01 96       	adiw	r24, 0x01	; 1
    3b58:	0e 94 85 13 	call	0x270a	; 0x270a <disp7s_update_data_array>
    3b5c:	89 cf       	rjmp	.-238    	; 0x3a70 <.L29>

00003b5e <.L70>:
    3b5e:	12 86       	std	Z+10, r1	; 0x0a
    3b60:	13 86       	std	Z+11, r1	; 0x0b
    3b62:	a1 ce       	rjmp	.-702    	; 0x38a6 <.L41>

00003b64 <p2>:
    3b64:	9f 92       	push	r9
    3b66:	af 92       	push	r10
    3b68:	bf 92       	push	r11
    3b6a:	cf 92       	push	r12
    3b6c:	df 92       	push	r13
    3b6e:	ef 92       	push	r14
    3b70:	ff 92       	push	r15
    3b72:	0f 93       	push	r16
    3b74:	1f 93       	push	r17
    3b76:	cf 93       	push	r28
    3b78:	df 93       	push	r29
    3b7a:	01 e7       	ldi	r16, 0x71	; 113
    3b7c:	16 e0       	ldi	r17, 0x06	; 6
    3b7e:	c0 e0       	ldi	r28, 0x00	; 0
    3b80:	d0 e0       	ldi	r29, 0x00	; 0
    3b82:	8a e1       	ldi	r24, 0x1A	; 26
    3b84:	98 2e       	mov	r9, r24

00003b86 <.L84>:
    3b86:	c8 01       	movw	r24, r16
    3b88:	43 96       	adiw	r24, 0x13	; 19
    3b8a:	0e 94 4e 0d 	call	0x1a9c	; 0x1a9c <blink_set>
    3b8e:	9c 9e       	mul	r9, r28
    3b90:	70 01       	movw	r14, r0
    3b92:	9d 9e       	mul	r9, r29
    3b94:	f0 0c       	add	r15, r0
    3b96:	11 24       	eor	r1, r1
    3b98:	f7 01       	movw	r30, r14
    3b9a:	e1 58       	subi	r30, 0x81	; 129
    3b9c:	f9 4f       	sbci	r31, 0xF9	; 249
    3b9e:	6f 01       	movw	r12, r30
    3ba0:	80 81       	ld	r24, Z
    3ba2:	80 fd       	sbrc	r24, 0
    3ba4:	15 c0       	rjmp	.+42     	; 0x3bd0 <.L94>

00003ba6 <.L76>:
    3ba6:	06 5e       	subi	r16, 0xE6	; 230
    3ba8:	1f 4f       	sbci	r17, 0xFF	; 255
    3baa:	cd 2b       	or	r28, r29
    3bac:	29 f4       	brne	.+10     	; 0x3bb8 <.L95>
    3bae:	41 e0       	ldi	r20, 0x01	; 1
    3bb0:	c4 2f       	mov	r28, r20
    3bb2:	80 e0       	ldi	r24, 0x00	; 0
    3bb4:	d8 2f       	mov	r29, r24
    3bb6:	e7 cf       	rjmp	.-50     	; 0x3b86 <.L84>

00003bb8 <.L95>:
    3bb8:	df 91       	pop	r29
    3bba:	cf 91       	pop	r28
    3bbc:	1f 91       	pop	r17
    3bbe:	0f 91       	pop	r16
    3bc0:	ff 90       	pop	r15
    3bc2:	ef 90       	pop	r14
    3bc4:	df 90       	pop	r13
    3bc6:	cf 90       	pop	r12
    3bc8:	bf 90       	pop	r11
    3bca:	af 90       	pop	r10
    3bcc:	9f 90       	pop	r9
    3bce:	08 95       	ret

00003bd0 <.L94>:
    3bd0:	80 91 ac 06 	lds	r24, 0x06AC	; 0x8006ac <mainflag>
    3bd4:	80 ff       	sbrs	r24, 0
    3bd6:	0d c0       	rjmp	.+26     	; 0x3bf2 <.L77>
    3bd8:	f8 01       	movw	r30, r16
    3bda:	84 85       	ldd	r24, Z+12	; 0x0c
    3bdc:	95 85       	ldd	r25, Z+13	; 0x0d
    3bde:	9c 01       	movw	r18, r24
    3be0:	2f 5f       	subi	r18, 0xFF	; 255
    3be2:	3f 4f       	sbci	r19, 0xFF	; 255
    3be4:	87 3e       	cpi	r24, 0xE7	; 231
    3be6:	93 40       	sbci	r25, 0x03	; 3
    3be8:	09 f4       	brne	.+2      	; 0x3bec <L0^A+0x2>

00003bea <L0^A>:
    3bea:	58 c0       	rjmp	.+176    	; 0x3c9c <.L78>
    3bec:	f8 01       	movw	r30, r16
    3bee:	35 87       	std	Z+13, r19	; 0x0d
    3bf0:	24 87       	std	Z+12, r18	; 0x0c

00003bf2 <.L77>:
    3bf2:	8a e1       	ldi	r24, 0x1A	; 26
    3bf4:	8c 9f       	mul	r24, r28
    3bf6:	f0 01       	movw	r30, r0
    3bf8:	8d 9f       	mul	r24, r29
    3bfa:	f0 0d       	add	r31, r0
    3bfc:	11 24       	eor	r1, r1
    3bfe:	e1 58       	subi	r30, 0x81	; 129
    3c00:	f9 4f       	sbci	r31, 0xF9	; 249
    3c02:	80 81       	ld	r24, Z
    3c04:	81 ff       	sbrs	r24, 1
    3c06:	cf cf       	rjmp	.-98     	; 0x3ba6 <.L76>

00003c08 <.L79>:
    3c08:	f8 01       	movw	r30, r16
    3c0a:	83 85       	ldd	r24, Z+11	; 0x0b
    3c0c:	81 11       	cpse	r24, r1
    3c0e:	3a c0       	rjmp	.+116    	; 0x3c84 <.L81>
    3c10:	f8 01       	movw	r30, r16
    3c12:	82 85       	ldd	r24, Z+10	; 0x0a
    3c14:	81 11       	cpse	r24, r1
    3c16:	36 c0       	rjmp	.+108    	; 0x3c84 <.L81>
    3c18:	8a e1       	ldi	r24, 0x1A	; 26
    3c1a:	8c 9f       	mul	r24, r28
    3c1c:	f0 01       	movw	r30, r0
    3c1e:	8d 9f       	mul	r24, r29
    3c20:	f0 0d       	add	r31, r0
    3c22:	11 24       	eor	r1, r1
    3c24:	e1 58       	subi	r30, 0x81	; 129
    3c26:	f9 4f       	sbci	r31, 0xF9	; 249
    3c28:	90 81       	ld	r25, Z
    3c2a:	9e 7f       	andi	r25, 0xFE	; 254
    3c2c:	90 83       	st	Z, r25
    3c2e:	9c 2f       	mov	r25, r28
    3c30:	9f 5f       	subi	r25, 0xFF	; 255
    3c32:	90 fb       	bst	r25, 0
    3c34:	aa 24       	eor	r10, r10
    3c36:	a0 f8       	bld	r10, 0
    3c38:	b1 2c       	mov	r11, r1
    3c3a:	8a 9d       	mul	r24, r10
    3c3c:	f0 01       	movw	r30, r0
    3c3e:	8b 9d       	mul	r24, r11
    3c40:	f0 0d       	add	r31, r0
    3c42:	11 24       	eor	r1, r1
    3c44:	df 01       	movw	r26, r30
    3c46:	a1 58       	subi	r26, 0x81	; 129
    3c48:	b9 4f       	sbci	r27, 0xF9	; 249
    3c4a:	8c 91       	ld	r24, X
    3c4c:	82 ff       	sbrs	r24, 2
    3c4e:	3c c0       	rjmp	.+120    	; 0x3cc8 <.L82>
    3c50:	ec 57       	subi	r30, 0x7C	; 124
    3c52:	f9 4f       	sbci	r31, 0xF9	; 249
    3c54:	87 e0       	ldi	r24, 0x07	; 7
    3c56:	d8 01       	movw	r26, r16
    3c58:	53 96       	adiw	r26, 0x13	; 19

00003c5a <.L^B1>:
    3c5a:	01 90       	ld	r0, Z+
    3c5c:	0d 92       	st	X+, r0
    3c5e:	8a 95       	dec	r24
    3c60:	e1 f7       	brne	.-8      	; 0x3c5a <.L^B1>

00003c62 <.L83>:
    3c62:	8a e1       	ldi	r24, 0x1A	; 26
    3c64:	8c 9f       	mul	r24, r28
    3c66:	f0 01       	movw	r30, r0
    3c68:	8d 9f       	mul	r24, r29
    3c6a:	f0 0d       	add	r31, r0
    3c6c:	11 24       	eor	r1, r1
    3c6e:	df 01       	movw	r26, r30
    3c70:	ad 58       	subi	r26, 0x8D	; 141
    3c72:	b9 4f       	sbci	r27, 0xF9	; 249
    3c74:	8c 91       	ld	r24, X
    3c76:	8e 7f       	andi	r24, 0xFE	; 254
    3c78:	8c 93       	st	X, r24
    3c7a:	e1 58       	subi	r30, 0x81	; 129
    3c7c:	f9 4f       	sbci	r31, 0xF9	; 249
    3c7e:	80 81       	ld	r24, Z
    3c80:	84 60       	ori	r24, 0x04	; 4
    3c82:	80 83       	st	Z, r24

00003c84 <.L81>:
    3c84:	8a e1       	ldi	r24, 0x1A	; 26
    3c86:	8c 9f       	mul	r24, r28
    3c88:	f0 01       	movw	r30, r0
    3c8a:	8d 9f       	mul	r24, r29
    3c8c:	f0 0d       	add	r31, r0
    3c8e:	11 24       	eor	r1, r1
    3c90:	e1 58       	subi	r30, 0x81	; 129
    3c92:	f9 4f       	sbci	r31, 0xF9	; 249
    3c94:	80 81       	ld	r24, Z
    3c96:	8d 7f       	andi	r24, 0xFD	; 253
    3c98:	80 83       	st	Z, r24
    3c9a:	85 cf       	rjmp	.-246    	; 0x3ba6 <.L76>

00003c9c <.L78>:
    3c9c:	f8 01       	movw	r30, r16
    3c9e:	15 86       	std	Z+13, r1	; 0x0d
    3ca0:	14 86       	std	Z+12, r1	; 0x0c
    3ca2:	c8 01       	movw	r24, r16
    3ca4:	0a 96       	adiw	r24, 0x0a	; 10
    3ca6:	0e 94 40 01 	call	0x280	; 0x280 <time_dec>
    3caa:	f6 01       	movw	r30, r12
    3cac:	80 81       	ld	r24, Z
    3cae:	82 60       	ori	r24, 0x02	; 2
    3cb0:	80 83       	st	Z, r24
    3cb2:	f8 01       	movw	r30, r16
    3cb4:	83 81       	ldd	r24, Z+3	; 0x03
    3cb6:	81 11       	cpse	r24, r1
    3cb8:	a7 cf       	rjmp	.-178    	; 0x3c08 <.L79>
    3cba:	f7 01       	movw	r30, r14
    3cbc:	ed 58       	subi	r30, 0x8D	; 141
    3cbe:	f9 4f       	sbci	r31, 0xF9	; 249
    3cc0:	80 81       	ld	r24, Z
    3cc2:	81 60       	ori	r24, 0x01	; 1
    3cc4:	80 83       	st	Z, r24
    3cc6:	a0 cf       	rjmp	.-192    	; 0x3c08 <.L79>

00003cc8 <.L82>:
    3cc8:	81 e0       	ldi	r24, 0x01	; 1
    3cca:	0e 94 53 0d 	call	0x1aa6	; 0x1aa6 <blink_reset>
    3cce:	c9 cf       	rjmp	.-110    	; 0x3c62 <.L83>

00003cd0 <p3>:
    3cd0:	cf 92       	push	r12
    3cd2:	df 92       	push	r13
    3cd4:	ef 92       	push	r14
    3cd6:	ff 92       	push	r15
    3cd8:	0f 93       	push	r16
    3cda:	1f 93       	push	r17
    3cdc:	cf 93       	push	r28
    3cde:	df 93       	push	r29
    3ce0:	cd b7       	in	r28, 0x3d	; 61
    3ce2:	de b7       	in	r29, 0x3e	; 62
    3ce4:	66 97       	sbiw	r28, 0x16	; 22
    3ce6:	0f b6       	in	r0, 0x3f	; 63
    3ce8:	f8 94       	cli
    3cea:	de bf       	out	0x3e, r29	; 62
    3cec:	0f be       	out	0x3f, r0	; 63
    3cee:	cd bf       	out	0x3d, r28	; 61
    3cf0:	01 e7       	ldi	r16, 0x71	; 113
    3cf2:	16 e0       	ldi	r17, 0x06	; 6
    3cf4:	e1 2c       	mov	r14, r1
    3cf6:	f1 2c       	mov	r15, r1
    3cf8:	c8 01       	movw	r24, r16
    3cfa:	43 96       	adiw	r24, 0x13	; 19
    3cfc:	0e 94 4e 0d 	call	0x1a9c	; 0x1a9c <blink_set>
    3d00:	f8 01       	movw	r30, r16
    3d02:	83 81       	ldd	r24, Z+3	; 0x03
    3d04:	81 11       	cpse	r24, r1
    3d06:	04 c0       	rjmp	.+8      	; 0x3d10 <.L98>
    3d08:	80 91 a6 06 	lds	r24, 0x06A6	; 0x8006a6 <fryer+0x35>
    3d0c:	81 30       	cpi	r24, 0x01	; 1
    3d0e:	a1 f0       	breq	.+40     	; 0x3d38 <.L104>

00003d10 <.L98>:
    3d10:	06 5e       	subi	r16, 0xE6	; 230
    3d12:	1f 4f       	sbci	r17, 0xFF	; 255
    3d14:	ef 28       	or	r14, r15
    3d16:	09 f0       	breq	.+2      	; 0x3d1a <L0^A+0x2>

00003d18 <L0^A>:
    3d18:	3f c0       	rjmp	.+126    	; 0x3d98 <.L105>
    3d1a:	ee 24       	eor	r14, r14
    3d1c:	e3 94       	inc	r14
    3d1e:	f1 2c       	mov	r15, r1
    3d20:	c8 01       	movw	r24, r16
    3d22:	43 96       	adiw	r24, 0x13	; 19
    3d24:	0e 94 4e 0d 	call	0x1a9c	; 0x1a9c <blink_set>
    3d28:	f8 01       	movw	r30, r16
    3d2a:	83 81       	ldd	r24, Z+3	; 0x03
    3d2c:	81 11       	cpse	r24, r1
    3d2e:	f0 cf       	rjmp	.-32     	; 0x3d10 <.L98>
    3d30:	80 91 a6 06 	lds	r24, 0x06A6	; 0x8006a6 <fryer+0x35>
    3d34:	81 30       	cpi	r24, 0x01	; 1
    3d36:	61 f7       	brne	.-40     	; 0x3d10 <.L98>

00003d38 <.L104>:
    3d38:	2a e1       	ldi	r18, 0x1A	; 26
    3d3a:	2e 9d       	mul	r18, r14
    3d3c:	c0 01       	movw	r24, r0
    3d3e:	2f 9d       	mul	r18, r15
    3d40:	90 0d       	add	r25, r0
    3d42:	11 24       	eor	r1, r1
    3d44:	9c 01       	movw	r18, r24
    3d46:	2d 58       	subi	r18, 0x8D	; 141
    3d48:	39 4f       	sbci	r19, 0xF9	; 249
    3d4a:	69 01       	movw	r12, r18
    3d4c:	f9 01       	movw	r30, r18
    3d4e:	80 81       	ld	r24, Z
    3d50:	80 fd       	sbrc	r24, 0
    3d52:	31 c0       	rjmp	.+98     	; 0x3db6 <.L106>

00003d54 <.L100>:
    3d54:	2a e1       	ldi	r18, 0x1A	; 26
    3d56:	2e 9d       	mul	r18, r14
    3d58:	c0 01       	movw	r24, r0
    3d5a:	2f 9d       	mul	r18, r15
    3d5c:	90 0d       	add	r25, r0
    3d5e:	11 24       	eor	r1, r1
    3d60:	fc 01       	movw	r30, r24
    3d62:	e1 58       	subi	r30, 0x81	; 129
    3d64:	f9 4f       	sbci	r31, 0xF9	; 249
    3d66:	20 81       	ld	r18, Z
    3d68:	22 ff       	sbrs	r18, 2
    3d6a:	d2 cf       	rjmp	.-92     	; 0x3d10 <.L98>
    3d6c:	88 57       	subi	r24, 0x78	; 120
    3d6e:	99 4f       	sbci	r25, 0xF9	; 249
    3d70:	fc 01       	movw	r30, r24
    3d72:	80 81       	ld	r24, Z
    3d74:	80 fd       	sbrc	r24, 0
    3d76:	55 c0       	rjmp	.+170    	; 0x3e22 <.L101>
    3d78:	44 e0       	ldi	r20, 0x04	; 4
    3d7a:	60 e0       	ldi	r22, 0x00	; 0
    3d7c:	ce 01       	movw	r24, r28
    3d7e:	01 96       	adiw	r24, 0x01	; 1
    3d80:	0e 94 76 13 	call	0x26ec	; 0x26ec <disp7s_blank_displays>
    3d84:	44 e0       	ldi	r20, 0x04	; 4
    3d86:	f8 01       	movw	r30, r16
    3d88:	60 81       	ld	r22, Z
    3d8a:	ce 01       	movw	r24, r28
    3d8c:	01 96       	adiw	r24, 0x01	; 1
    3d8e:	0e 94 85 13 	call	0x270a	; 0x270a <disp7s_update_data_array>
    3d92:	0e 94 6b 07 	call	0xed6	; 0xed6 <indicator_on>
    3d96:	bc cf       	rjmp	.-136    	; 0x3d10 <.L98>

00003d98 <.L105>:
    3d98:	66 96       	adiw	r28, 0x16	; 22
    3d9a:	0f b6       	in	r0, 0x3f	; 63
    3d9c:	f8 94       	cli
    3d9e:	de bf       	out	0x3e, r29	; 62
    3da0:	0f be       	out	0x3f, r0	; 63
    3da2:	cd bf       	out	0x3d, r28	; 61
    3da4:	df 91       	pop	r29
    3da6:	cf 91       	pop	r28
    3da8:	1f 91       	pop	r17
    3daa:	0f 91       	pop	r16
    3dac:	ff 90       	pop	r15
    3dae:	ef 90       	pop	r14
    3db0:	df 90       	pop	r13
    3db2:	cf 90       	pop	r12
    3db4:	08 95       	ret

00003db6 <.L106>:
    3db6:	f8 01       	movw	r30, r16
    3db8:	82 85       	ldd	r24, Z+10	; 0x0a
    3dba:	42 e0       	ldi	r20, 0x02	; 2
    3dbc:	be 01       	movw	r22, r28
    3dbe:	6b 5e       	subi	r22, 0xEB	; 235
    3dc0:	7f 4f       	sbci	r23, 0xFF	; 255
    3dc2:	08 2e       	mov	r0, r24
    3dc4:	00 0c       	add	r0, r0
    3dc6:	99 0b       	sbc	r25, r25
    3dc8:	0e 94 d1 13 	call	0x27a2	; 0x27a2 <integer_to_arraybcd_msb_lsb_paddingleft_blank>
    3dcc:	8e 89       	ldd	r24, Y+22	; 0x16
    3dce:	9d 89       	ldd	r25, Y+21	; 0x15
    3dd0:	99 83       	std	Y+1, r25	; 0x01
    3dd2:	8a 83       	std	Y+2, r24	; 0x02
    3dd4:	f8 01       	movw	r30, r16
    3dd6:	83 85       	ldd	r24, Z+11	; 0x0b
    3dd8:	42 e0       	ldi	r20, 0x02	; 2
    3dda:	be 01       	movw	r22, r28
    3ddc:	6b 5e       	subi	r22, 0xEB	; 235
    3dde:	7f 4f       	sbci	r23, 0xFF	; 255
    3de0:	08 2e       	mov	r0, r24
    3de2:	00 0c       	add	r0, r0
    3de4:	99 0b       	sbc	r25, r25
    3de6:	0e 94 9c 14 	call	0x2938	; 0x2938 <integer_to_arraybcd_msb_lsb_paddingleft_zeroes>
    3dea:	8e 89       	ldd	r24, Y+22	; 0x16
    3dec:	9d 89       	ldd	r25, Y+21	; 0x15
    3dee:	9b 83       	std	Y+3, r25	; 0x03
    3df0:	8c 83       	std	Y+4, r24	; 0x04
    3df2:	ce 01       	movw	r24, r28
    3df4:	02 96       	adiw	r24, 0x02	; 2
    3df6:	0e 94 66 15 	call	0x2acc	; 0x2acc <disp7s_decimalpoint_on>
    3dfa:	ce 01       	movw	r24, r28
    3dfc:	03 96       	adiw	r24, 0x03	; 3
    3dfe:	0e 94 66 15 	call	0x2acc	; 0x2acc <disp7s_decimalpoint_on>
    3e02:	ce 01       	movw	r24, r28
    3e04:	03 96       	adiw	r24, 0x03	; 3
    3e06:	0e 94 3b 13 	call	0x2676	; 0x2676 <disp7s_fix_upsidedown_display>
    3e0a:	44 e0       	ldi	r20, 0x04	; 4
    3e0c:	f8 01       	movw	r30, r16
    3e0e:	60 81       	ld	r22, Z
    3e10:	ce 01       	movw	r24, r28
    3e12:	01 96       	adiw	r24, 0x01	; 1
    3e14:	0e 94 85 13 	call	0x270a	; 0x270a <disp7s_update_data_array>
    3e18:	f6 01       	movw	r30, r12
    3e1a:	80 81       	ld	r24, Z
    3e1c:	8e 7f       	andi	r24, 0xFE	; 254
    3e1e:	80 83       	st	Z, r24
    3e20:	99 cf       	rjmp	.-206    	; 0x3d54 <.L100>

00003e22 <.L101>:
    3e22:	44 e0       	ldi	r20, 0x04	; 4
    3e24:	50 e0       	ldi	r21, 0x00	; 0
    3e26:	6b eb       	ldi	r22, 0xBB	; 187
    3e28:	74 e0       	ldi	r23, 0x04	; 4
    3e2a:	ce 01       	movw	r24, r28
    3e2c:	01 96       	adiw	r24, 0x01	; 1
    3e2e:	0e 94 c2 23 	call	0x4784	; 0x4784 <strncpy>
    3e32:	44 e0       	ldi	r20, 0x04	; 4
    3e34:	f8 01       	movw	r30, r16
    3e36:	60 81       	ld	r22, Z
    3e38:	ce 01       	movw	r24, r28
    3e3a:	01 96       	adiw	r24, 0x01	; 1
    3e3c:	0e 94 85 13 	call	0x270a	; 0x270a <disp7s_update_data_array>
    3e40:	0e 94 7b 07 	call	0xef6	; 0xef6 <indicator_off>
    3e44:	65 cf       	rjmp	.-310    	; 0x3d10 <.L98>

00003e46 <psmode_operative>:
    3e46:	80 91 a8 06 	lds	r24, 0x06A8	; 0x8006a8 <fryer+0x37>
    3e4a:	88 23       	and	r24, r24
    3e4c:	19 f1       	breq	.+70     	; 0x3e94 <.L120>
    3e4e:	80 91 a6 06 	lds	r24, 0x06A6	; 0x8006a6 <fryer+0x35>
    3e52:	81 30       	cpi	r24, 0x01	; 1
    3e54:	51 f1       	breq	.+84     	; 0x3eaa <.L121>

00003e56 <.L109>:
    3e56:	0e 94 b2 1d 	call	0x3b64	; 0x3b64 <p2>
    3e5a:	80 91 a6 06 	lds	r24, 0x06A6	; 0x8006a6 <fryer+0x35>
    3e5e:	81 30       	cpi	r24, 0x01	; 1
    3e60:	09 f0       	breq	.+2      	; 0x3e64 <.L122>

00003e62 <.L107>:
    3e62:	08 95       	ret

00003e64 <.L122>:
    3e64:	0e 94 68 1e 	call	0x3cd0	; 0x3cd0 <p3>
    3e68:	80 91 a6 06 	lds	r24, 0x06A6	; 0x8006a6 <fryer+0x35>
    3e6c:	81 30       	cpi	r24, 0x01	; 1
    3e6e:	c9 f7       	brne	.-14     	; 0x3e62 <.L107>
    3e70:	84 e8       	ldi	r24, 0x84	; 132
    3e72:	96 e0       	ldi	r25, 0x06	; 6
    3e74:	0e 94 4e 0d 	call	0x1a9c	; 0x1a9c <blink_set>
    3e78:	80 91 ac 06 	lds	r24, 0x06AC	; 0x8006ac <mainflag>
    3e7c:	80 fd       	sbrc	r24, 0
    3e7e:	18 c0       	rjmp	.+48     	; 0x3eb0 <.L123>

00003e80 <.L113>:
    3e80:	8e e9       	ldi	r24, 0x9E	; 158
    3e82:	96 e0       	ldi	r25, 0x06	; 6
    3e84:	0e 94 4e 0d 	call	0x1a9c	; 0x1a9c <blink_set>
    3e88:	80 91 ac 06 	lds	r24, 0x06AC	; 0x8006ac <mainflag>
    3e8c:	80 ff       	sbrs	r24, 0
    3e8e:	e9 cf       	rjmp	.-46     	; 0x3e62 <.L107>
    3e90:	0c 94 60 0d 	jmp	0x1ac0	; 0x1ac0 <blink_timing>

00003e94 <.L120>:
    3e94:	0e 94 53 1a 	call	0x34a6	; 0x34a6 <psmode_operative_init>
    3e98:	80 91 a8 06 	lds	r24, 0x06A8	; 0x8006a8 <fryer+0x37>
    3e9c:	8f 5f       	subi	r24, 0xFF	; 255
    3e9e:	80 93 a8 06 	sts	0x06A8, r24	; 0x8006a8 <fryer+0x37>
    3ea2:	80 91 a6 06 	lds	r24, 0x06A6	; 0x8006a6 <fryer+0x35>
    3ea6:	81 30       	cpi	r24, 0x01	; 1
    3ea8:	b1 f6       	brne	.-84     	; 0x3e56 <.L109>

00003eaa <.L121>:
    3eaa:	0e 94 03 1b 	call	0x3606	; 0x3606 <p1>
    3eae:	d3 cf       	rjmp	.-90     	; 0x3e56 <.L109>

00003eb0 <.L123>:
    3eb0:	0e 94 60 0d 	call	0x1ac0	; 0x1ac0 <blink_timing>
    3eb4:	e5 cf       	rjmp	.-54     	; 0x3e80 <.L113>

00003eb6 <psmode_program>:
    3eb6:	ef 92       	push	r14
    3eb8:	ff 92       	push	r15
    3eba:	0f 93       	push	r16
    3ebc:	1f 93       	push	r17
    3ebe:	cf 93       	push	r28
    3ec0:	df 93       	push	r29
    3ec2:	cd b7       	in	r28, 0x3d	; 61
    3ec4:	de b7       	in	r29, 0x3e	; 62
    3ec6:	2a 97       	sbiw	r28, 0x0a	; 10
    3ec8:	0f b6       	in	r0, 0x3f	; 63
    3eca:	f8 94       	cli
    3ecc:	de bf       	out	0x3e, r29	; 62
    3ece:	0f be       	out	0x3f, r0	; 63
    3ed0:	cd bf       	out	0x3d, r28	; 61
    3ed2:	83 ee       	ldi	r24, 0xE3	; 227
    3ed4:	96 e0       	ldi	r25, 0x06	; 6
    3ed6:	0e 94 4e 0d 	call	0x1a9c	; 0x1a9c <blink_set>
    3eda:	80 91 a7 06 	lds	r24, 0x06A7	; 0x8006a7 <fryer+0x36>
    3ede:	81 11       	cpse	r24, r1
    3ee0:	81 c0       	rjmp	.+258    	; 0x3fe4 <.L2>
    3ee2:	86 e0       	ldi	r24, 0x06	; 6
    3ee4:	e0 e8       	ldi	r30, 0x80	; 128
    3ee6:	f0 e0       	ldi	r31, 0x00	; 0
    3ee8:	de 01       	movw	r26, r28
    3eea:	11 96       	adiw	r26, 0x01	; 1

00003eec <.L^B1>:
    3eec:	01 90       	ld	r0, Z+
    3eee:	0d 92       	st	X+, r0
    3ef0:	8a 95       	dec	r24
    3ef2:	e1 f7       	brne	.-8      	; 0x3eec <.L^B1>
    3ef4:	29 81       	ldd	r18, Y+1	; 0x01
    3ef6:	21 60       	ori	r18, 0x01	; 1
    3ef8:	29 83       	std	Y+1, r18	; 0x01
    3efa:	3a 81       	ldd	r19, Y+2	; 0x02
    3efc:	4b 81       	ldd	r20, Y+3	; 0x03
    3efe:	5c 81       	ldd	r21, Y+4	; 0x04
    3f00:	6d 81       	ldd	r22, Y+5	; 0x05
    3f02:	7e 81       	ldd	r23, Y+6	; 0x06
    3f04:	80 91 79 06 	lds	r24, 0x0679	; 0x800679 <fryer+0x8>
    3f08:	0e 94 3b 08 	call	0x1076	; 0x1076 <ikb_setKeyProp>
    3f0c:	29 81       	ldd	r18, Y+1	; 0x01
    3f0e:	3a 81       	ldd	r19, Y+2	; 0x02
    3f10:	4b 81       	ldd	r20, Y+3	; 0x03
    3f12:	5c 81       	ldd	r21, Y+4	; 0x04
    3f14:	6d 81       	ldd	r22, Y+5	; 0x05
    3f16:	7e 81       	ldd	r23, Y+6	; 0x06
    3f18:	80 91 93 06 	lds	r24, 0x0693	; 0x800693 <fryer+0x22>
    3f1c:	0e 94 3b 08 	call	0x1076	; 0x1076 <ikb_setKeyProp>
    3f20:	80 91 a7 06 	lds	r24, 0x06A7	; 0x8006a7 <fryer+0x36>
    3f24:	8f 5f       	subi	r24, 0xFF	; 255
    3f26:	80 93 a7 06 	sts	0x06A7, r24	; 0x8006a7 <fryer+0x36>
    3f2a:	80 e9       	ldi	r24, 0x90	; 144
    3f2c:	91 e0       	ldi	r25, 0x01	; 1
    3f2e:	90 93 e6 06 	sts	0x06E6, r25	; 0x8006e6 <blink.0+0x3>
    3f32:	80 93 e5 06 	sts	0x06E5, r24	; 0x8006e5 <blink.0+0x2>

00003f36 <.L3>:
    3f36:	80 91 ea 06 	lds	r24, 0x06EA	; 0x8006ea <blinkIsActive>
    3f3a:	90 91 eb 06 	lds	r25, 0x06EB	; 0x8006eb <blinkIsActive+0x1>
    3f3e:	89 2b       	or	r24, r25
    3f40:	21 f0       	breq	.+8      	; 0x3f4a <.L18>
    3f42:	80 91 e7 06 	lds	r24, 0x06E7	; 0x8006e7 <blink.0+0x4>
    3f46:	81 fd       	sbrc	r24, 1
    3f48:	18 c0       	rjmp	.+48     	; 0x3f7a <.L39>

00003f4a <.L18>:
    3f4a:	83 e0       	ldi	r24, 0x03	; 3
    3f4c:	0e 94 4c 09 	call	0x1298	; 0x1298 <ikb_key_is_ready2read>
    3f50:	10 e0       	ldi	r17, 0x00	; 0
    3f52:	81 11       	cpse	r24, r1
    3f54:	2c c0       	rjmp	.+88     	; 0x3fae <.L40>

00003f56 <.L21>:
    3f56:	80 91 ac 06 	lds	r24, 0x06AC	; 0x8006ac <mainflag>
    3f5a:	80 fd       	sbrc	r24, 0
    3f5c:	40 c0       	rjmp	.+128    	; 0x3fde <.L41>

00003f5e <.L1>:
    3f5e:	81 2f       	mov	r24, r17
    3f60:	2a 96       	adiw	r28, 0x0a	; 10
    3f62:	0f b6       	in	r0, 0x3f	; 63
    3f64:	f8 94       	cli
    3f66:	de bf       	out	0x3e, r29	; 62
    3f68:	0f be       	out	0x3f, r0	; 63
    3f6a:	cd bf       	out	0x3d, r28	; 61
    3f6c:	df 91       	pop	r29
    3f6e:	cf 91       	pop	r28
    3f70:	1f 91       	pop	r17
    3f72:	0f 91       	pop	r16
    3f74:	ff 90       	pop	r15
    3f76:	ef 90       	pop	r14
    3f78:	08 95       	ret

00003f7a <.L39>:
    3f7a:	8d 7f       	andi	r24, 0xFD	; 253
    3f7c:	80 93 e7 06 	sts	0x06E7, r24	; 0x8006e7 <blink.0+0x4>
    3f80:	80 ff       	sbrs	r24, 0
    3f82:	52 c0       	rjmp	.+164    	; 0x4028 <.L42>
    3f84:	8e 01       	movw	r16, r28
    3f86:	0f 5f       	subi	r16, 0xFF	; 255
    3f88:	1f 4f       	sbci	r17, 0xFF	; 255
    3f8a:	b8 01       	movw	r22, r16
    3f8c:	80 91 ec 06 	lds	r24, 0x06EC	; 0x8006ec <tmprture_coccion>
    3f90:	90 91 ed 06 	lds	r25, 0x06ED	; 0x8006ed <tmprture_coccion+0x1>
    3f94:	0e 94 cc 0e 	call	0x1d98	; 0x1d98 <MAX6675_formatText3dig>

00003f98 <.L20>:
    3f98:	44 e0       	ldi	r20, 0x04	; 4
    3f9a:	64 e0       	ldi	r22, 0x04	; 4
    3f9c:	c8 01       	movw	r24, r16
    3f9e:	0e 94 85 13 	call	0x270a	; 0x270a <disp7s_update_data_array>
    3fa2:	83 e0       	ldi	r24, 0x03	; 3
    3fa4:	0e 94 4c 09 	call	0x1298	; 0x1298 <ikb_key_is_ready2read>
    3fa8:	10 e0       	ldi	r17, 0x00	; 0
    3faa:	88 23       	and	r24, r24
    3fac:	a1 f2       	breq	.-88     	; 0x3f56 <.L21>

00003fae <.L40>:
    3fae:	83 e0       	ldi	r24, 0x03	; 3
    3fb0:	0e 94 60 09 	call	0x12c0	; 0x12c0 <ikb_key_was_read>
    3fb4:	80 91 a7 06 	lds	r24, 0x06A7	; 0x8006a7 <fryer+0x36>
    3fb8:	8f 5f       	subi	r24, 0xFF	; 255
    3fba:	80 93 a7 06 	sts	0x06A7, r24	; 0x8006a7 <fryer+0x36>
    3fbe:	83 30       	cpi	r24, 0x03	; 3
    3fc0:	e1 f1       	breq	.+120    	; 0x403a <.L43>
    3fc2:	85 30       	cpi	r24, 0x05	; 5
    3fc4:	09 f4       	brne	.+2      	; 0x3fc8 <.L23>

00003fc6 <L0^A>:
    3fc6:	af c0       	rjmp	.+350    	; 0x4126 <.L24>

00003fc8 <.L23>:
    3fc8:	10 e0       	ldi	r17, 0x00	; 0

00003fca <.L25>:
    3fca:	80 e5       	ldi	r24, 0x50	; 80
    3fcc:	90 e0       	ldi	r25, 0x00	; 0
    3fce:	0e 94 4b 07 	call	0xe96	; 0xe96 <indicatorTimed_setKSysTickTime_ms>
    3fd2:	0e 94 50 07 	call	0xea0	; 0xea0 <indicatorTimed_run>
    3fd6:	80 91 ac 06 	lds	r24, 0x06AC	; 0x8006ac <mainflag>
    3fda:	80 ff       	sbrs	r24, 0
    3fdc:	c0 cf       	rjmp	.-128    	; 0x3f5e <.L1>

00003fde <.L41>:
    3fde:	0e 94 60 0d 	call	0x1ac0	; 0x1ac0 <blink_timing>
    3fe2:	bd cf       	rjmp	.-134    	; 0x3f5e <.L1>

00003fe4 <.L2>:
    3fe4:	81 30       	cpi	r24, 0x01	; 1
    3fe6:	81 f1       	breq	.+96     	; 0x4048 <.L44>
    3fe8:	82 30       	cpi	r24, 0x02	; 2
    3fea:	d1 f1       	breq	.+116    	; 0x4060 <.L45>
    3fec:	83 30       	cpi	r24, 0x03	; 3
    3fee:	09 f4       	brne	.+2      	; 0x3ff2 <L0^A+0x2>

00003ff0 <L0^A>:
    3ff0:	47 c0       	rjmp	.+142    	; 0x4080 <.L46>
    3ff2:	84 30       	cpi	r24, 0x04	; 4
    3ff4:	09 f0       	breq	.+2      	; 0x3ff8 <L0^A+0x2>

00003ff6 <L0^A>:
    3ff6:	9f cf       	rjmp	.-194    	; 0x3f36 <.L3>
    3ff8:	01 e7       	ldi	r16, 0x71	; 113
    3ffa:	16 e0       	ldi	r17, 0x06	; 6
    3ffc:	85 ea       	ldi	r24, 0xA5	; 165
    3ffe:	e8 2e       	mov	r14, r24
    4000:	86 e0       	ldi	r24, 0x06	; 6
    4002:	f8 2e       	mov	r15, r24

00004004 <.L16>:
    4004:	f8 01       	movw	r30, r16
    4006:	86 81       	ldd	r24, Z+6	; 0x06
    4008:	0e 94 4c 09 	call	0x1298	; 0x1298 <ikb_key_is_ready2read>
    400c:	81 11       	cpse	r24, r1
    400e:	68 c0       	rjmp	.+208    	; 0x40e0 <.L47>

00004010 <.L9>:
    4010:	f8 01       	movw	r30, r16
    4012:	87 81       	ldd	r24, Z+7	; 0x07
    4014:	0e 94 4c 09 	call	0x1298	; 0x1298 <ikb_key_is_ready2read>
    4018:	81 11       	cpse	r24, r1
    401a:	3e c0       	rjmp	.+124    	; 0x4098 <.L48>

0000401c <.L13>:
    401c:	06 5e       	subi	r16, 0xE6	; 230
    401e:	1f 4f       	sbci	r17, 0xFF	; 255
    4020:	e0 16       	cp	r14, r16
    4022:	f1 06       	cpc	r15, r17
    4024:	79 f7       	brne	.-34     	; 0x4004 <.L16>
    4026:	87 cf       	rjmp	.-242    	; 0x3f36 <.L3>

00004028 <.L42>:
    4028:	44 e0       	ldi	r20, 0x04	; 4
    402a:	60 e0       	ldi	r22, 0x00	; 0
    402c:	8e 01       	movw	r16, r28
    402e:	0f 5f       	subi	r16, 0xFF	; 255
    4030:	1f 4f       	sbci	r17, 0xFF	; 255
    4032:	c8 01       	movw	r24, r16
    4034:	0e 94 76 13 	call	0x26ec	; 0x26ec <disp7s_blank_displays>
    4038:	af cf       	rjmp	.-162    	; 0x3f98 <.L20>

0000403a <.L43>:
    403a:	81 e0       	ldi	r24, 0x01	; 1
    403c:	90 e0       	ldi	r25, 0x00	; 0
    403e:	90 93 eb 06 	sts	0x06EB, r25	; 0x8006eb <blinkIsActive+0x1>
    4042:	80 93 ea 06 	sts	0x06EA, r24	; 0x8006ea <blinkIsActive>
    4046:	c0 cf       	rjmp	.-128    	; 0x3fc8 <.L23>

00004048 <.L44>:
    4048:	44 e0       	ldi	r20, 0x04	; 4
    404a:	60 e0       	ldi	r22, 0x00	; 0
    404c:	87 eb       	ldi	r24, 0xB7	; 183
    404e:	94 e0       	ldi	r25, 0x04	; 4
    4050:	0e 94 85 13 	call	0x270a	; 0x270a <disp7s_update_data_array>
    4054:	80 91 a7 06 	lds	r24, 0x06A7	; 0x8006a7 <fryer+0x36>
    4058:	8f 5f       	subi	r24, 0xFF	; 255
    405a:	80 93 a7 06 	sts	0x06A7, r24	; 0x8006a7 <fryer+0x36>
    405e:	6b cf       	rjmp	.-298    	; 0x3f36 <.L3>

00004060 <.L45>:
    4060:	be 01       	movw	r22, r28
    4062:	6f 5f       	subi	r22, 0xFF	; 255
    4064:	7f 4f       	sbci	r23, 0xFF	; 255
    4066:	80 91 21 06 	lds	r24, 0x0621	; 0x800621 <TCtemperature>
    406a:	90 91 22 06 	lds	r25, 0x0622	; 0x800622 <TCtemperature+0x1>
    406e:	0e 94 cc 0e 	call	0x1d98	; 0x1d98 <MAX6675_formatText3dig>
    4072:	44 e0       	ldi	r20, 0x04	; 4
    4074:	64 e0       	ldi	r22, 0x04	; 4
    4076:	ce 01       	movw	r24, r28
    4078:	01 96       	adiw	r24, 0x01	; 1
    407a:	0e 94 85 13 	call	0x270a	; 0x270a <disp7s_update_data_array>
    407e:	5b cf       	rjmp	.-330    	; 0x3f36 <.L3>

00004080 <.L46>:
    4080:	44 e0       	ldi	r20, 0x04	; 4
    4082:	60 e0       	ldi	r22, 0x00	; 0
    4084:	83 eb       	ldi	r24, 0xB3	; 179
    4086:	94 e0       	ldi	r25, 0x04	; 4
    4088:	0e 94 85 13 	call	0x270a	; 0x270a <disp7s_update_data_array>
    408c:	80 91 a7 06 	lds	r24, 0x06A7	; 0x8006a7 <fryer+0x36>
    4090:	8f 5f       	subi	r24, 0xFF	; 255
    4092:	80 93 a7 06 	sts	0x06A7, r24	; 0x8006a7 <fryer+0x36>
    4096:	4f cf       	rjmp	.-354    	; 0x3f36 <.L3>

00004098 <.L48>:
    4098:	f8 01       	movw	r30, r16
    409a:	87 81       	ldd	r24, Z+7	; 0x07
    409c:	0e 94 60 09 	call	0x12c0	; 0x12c0 <ikb_key_was_read>
    40a0:	f8 01       	movw	r30, r16
    40a2:	87 81       	ldd	r24, Z+7	; 0x07
    40a4:	0e 94 f9 09 	call	0x13f2	; 0x13f2 <ikb_inReptt>
    40a8:	88 23       	and	r24, r24
    40aa:	09 f4       	brne	.+2      	; 0x40ae <.L14>

000040ac <L0^A>:
    40ac:	51 c0       	rjmp	.+162    	; 0x4150 <.L49>

000040ae <.L14>:
    40ae:	81 e0       	ldi	r24, 0x01	; 1
    40b0:	0e 94 53 0d 	call	0x1aa6	; 0x1aa6 <blink_reset>
    40b4:	80 91 ec 06 	lds	r24, 0x06EC	; 0x8006ec <tmprture_coccion>
    40b8:	90 91 ed 06 	lds	r25, 0x06ED	; 0x8006ed <tmprture_coccion+0x1>
    40bc:	01 96       	adiw	r24, 0x01	; 1
    40be:	90 93 ed 06 	sts	0x06ED, r25	; 0x8006ed <tmprture_coccion+0x1>
    40c2:	80 93 ec 06 	sts	0x06EC, r24	; 0x8006ec <tmprture_coccion>
    40c6:	20 91 f0 06 	lds	r18, 0x06F0	; 0x8006f0 <tmprture_coccion+0x4>
    40ca:	30 91 f1 06 	lds	r19, 0x06F1	; 0x8006f1 <tmprture_coccion+0x5>
    40ce:	82 17       	cp	r24, r18
    40d0:	93 07       	cpc	r25, r19
    40d2:	0c f4       	brge	.+2      	; 0x40d6 <L0^A+0x2>

000040d4 <L0^A>:
    40d4:	a3 cf       	rjmp	.-186    	; 0x401c <.L13>
    40d6:	30 93 ed 06 	sts	0x06ED, r19	; 0x8006ed <tmprture_coccion+0x1>
    40da:	20 93 ec 06 	sts	0x06EC, r18	; 0x8006ec <tmprture_coccion>
    40de:	9e cf       	rjmp	.-196    	; 0x401c <.L13>

000040e0 <.L47>:
    40e0:	f8 01       	movw	r30, r16
    40e2:	86 81       	ldd	r24, Z+6	; 0x06
    40e4:	0e 94 60 09 	call	0x12c0	; 0x12c0 <ikb_key_was_read>
    40e8:	f8 01       	movw	r30, r16
    40ea:	86 81       	ldd	r24, Z+6	; 0x06
    40ec:	0e 94 f9 09 	call	0x13f2	; 0x13f2 <ikb_inReptt>
    40f0:	88 23       	and	r24, r24
    40f2:	39 f1       	breq	.+78     	; 0x4142 <.L50>

000040f4 <.L10>:
    40f4:	81 e0       	ldi	r24, 0x01	; 1
    40f6:	0e 94 53 0d 	call	0x1aa6	; 0x1aa6 <blink_reset>
    40fa:	80 91 ec 06 	lds	r24, 0x06EC	; 0x8006ec <tmprture_coccion>
    40fe:	90 91 ed 06 	lds	r25, 0x06ED	; 0x8006ed <tmprture_coccion+0x1>
    4102:	01 97       	sbiw	r24, 0x01	; 1
    4104:	90 93 ed 06 	sts	0x06ED, r25	; 0x8006ed <tmprture_coccion+0x1>
    4108:	80 93 ec 06 	sts	0x06EC, r24	; 0x8006ec <tmprture_coccion>
    410c:	20 91 ee 06 	lds	r18, 0x06EE	; 0x8006ee <tmprture_coccion+0x2>
    4110:	30 91 ef 06 	lds	r19, 0x06EF	; 0x8006ef <tmprture_coccion+0x3>
    4114:	28 17       	cp	r18, r24
    4116:	39 07       	cpc	r19, r25
    4118:	0c f4       	brge	.+2      	; 0x411c <L0^A+0x2>

0000411a <L0^A>:
    411a:	7a cf       	rjmp	.-268    	; 0x4010 <.L9>
    411c:	30 93 ed 06 	sts	0x06ED, r19	; 0x8006ed <tmprture_coccion+0x1>
    4120:	20 93 ec 06 	sts	0x06EC, r18	; 0x8006ec <tmprture_coccion>
    4124:	75 cf       	rjmp	.-278    	; 0x4010 <.L9>

00004126 <.L24>:
    4126:	46 e0       	ldi	r20, 0x06	; 6
    4128:	50 e0       	ldi	r21, 0x00	; 0
    412a:	64 e0       	ldi	r22, 0x04	; 4
    412c:	70 e0       	ldi	r23, 0x00	; 0
    412e:	8c ee       	ldi	r24, 0xEC	; 236
    4130:	96 e0       	ldi	r25, 0x06	; 6
    4132:	0e 94 ea 23 	call	0x47d4	; 0x47d4 <eeprom_update_block>
    4136:	10 92 eb 06 	sts	0x06EB, r1	; 0x8006eb <blinkIsActive+0x1>
    413a:	10 92 ea 06 	sts	0x06EA, r1	; 0x8006ea <blinkIsActive>
    413e:	11 e0       	ldi	r17, 0x01	; 1
    4140:	44 cf       	rjmp	.-376    	; 0x3fca <.L25>

00004142 <.L50>:
    4142:	8b e4       	ldi	r24, 0x4B	; 75
    4144:	90 e0       	ldi	r25, 0x00	; 0
    4146:	0e 94 4b 07 	call	0xe96	; 0xe96 <indicatorTimed_setKSysTickTime_ms>
    414a:	0e 94 50 07 	call	0xea0	; 0xea0 <indicatorTimed_run>
    414e:	d2 cf       	rjmp	.-92     	; 0x40f4 <.L10>

00004150 <.L49>:
    4150:	8b e4       	ldi	r24, 0x4B	; 75
    4152:	90 e0       	ldi	r25, 0x00	; 0
    4154:	0e 94 4b 07 	call	0xe96	; 0xe96 <indicatorTimed_setKSysTickTime_ms>
    4158:	0e 94 50 07 	call	0xea0	; 0xea0 <indicatorTimed_run>
    415c:	a8 cf       	rjmp	.-176    	; 0x40ae <.L14>

0000415e <psmode_viewTemp>:
    415e:	1f 93       	push	r17
    4160:	cf 93       	push	r28
    4162:	df 93       	push	r29
    4164:	cd b7       	in	r28, 0x3d	; 61
    4166:	de b7       	in	r29, 0x3e	; 62
    4168:	2a 97       	sbiw	r28, 0x0a	; 10
    416a:	0f b6       	in	r0, 0x3f	; 63
    416c:	f8 94       	cli
    416e:	de bf       	out	0x3e, r29	; 62
    4170:	0f be       	out	0x3f, r0	; 63
    4172:	cd bf       	out	0x3d, r28	; 61
    4174:	80 91 a9 06 	lds	r24, 0x06A9	; 0x8006a9 <fryer+0x38>
    4178:	81 11       	cpse	r24, r1
    417a:	35 c0       	rjmp	.+106    	; 0x41e6 <.L2>
    417c:	86 e0       	ldi	r24, 0x06	; 6
    417e:	e0 e8       	ldi	r30, 0x80	; 128
    4180:	f0 e0       	ldi	r31, 0x00	; 0
    4182:	de 01       	movw	r26, r28
    4184:	11 96       	adiw	r26, 0x01	; 1

00004186 <.L^B1>:
    4186:	01 90       	ld	r0, Z+
    4188:	0d 92       	st	X+, r0
    418a:	8a 95       	dec	r24
    418c:	e1 f7       	brne	.-8      	; 0x4186 <.L^B1>
    418e:	29 81       	ldd	r18, Y+1	; 0x01
    4190:	21 60       	ori	r18, 0x01	; 1
    4192:	29 83       	std	Y+1, r18	; 0x01
    4194:	3a 81       	ldd	r19, Y+2	; 0x02
    4196:	4b 81       	ldd	r20, Y+3	; 0x03
    4198:	5c 81       	ldd	r21, Y+4	; 0x04
    419a:	6d 81       	ldd	r22, Y+5	; 0x05
    419c:	7e 81       	ldd	r23, Y+6	; 0x06
    419e:	80 91 79 06 	lds	r24, 0x0679	; 0x800679 <fryer+0x8>
    41a2:	0e 94 3b 08 	call	0x1076	; 0x1076 <ikb_setKeyProp>
    41a6:	29 81       	ldd	r18, Y+1	; 0x01
    41a8:	3a 81       	ldd	r19, Y+2	; 0x02
    41aa:	4b 81       	ldd	r20, Y+3	; 0x03
    41ac:	5c 81       	ldd	r21, Y+4	; 0x04
    41ae:	6d 81       	ldd	r22, Y+5	; 0x05
    41b0:	7e 81       	ldd	r23, Y+6	; 0x06
    41b2:	80 91 93 06 	lds	r24, 0x0693	; 0x800693 <fryer+0x22>
    41b6:	0e 94 3b 08 	call	0x1076	; 0x1076 <ikb_setKeyProp>
    41ba:	80 91 a9 06 	lds	r24, 0x06A9	; 0x8006a9 <fryer+0x38>
    41be:	8f 5f       	subi	r24, 0xFF	; 255
    41c0:	80 93 a9 06 	sts	0x06A9, r24	; 0x8006a9 <fryer+0x38>

000041c4 <.L15>:
    41c4:	10 e0       	ldi	r17, 0x00	; 0
    41c6:	83 e0       	ldi	r24, 0x03	; 3
    41c8:	0e 94 4c 09 	call	0x1298	; 0x1298 <ikb_key_is_ready2read>
    41cc:	81 11       	cpse	r24, r1
    41ce:	17 c0       	rjmp	.+46     	; 0x41fe <.L18>

000041d0 <.L1>:
    41d0:	81 2f       	mov	r24, r17
    41d2:	2a 96       	adiw	r28, 0x0a	; 10
    41d4:	0f b6       	in	r0, 0x3f	; 63
    41d6:	f8 94       	cli
    41d8:	de bf       	out	0x3e, r29	; 62
    41da:	0f be       	out	0x3f, r0	; 63
    41dc:	cd bf       	out	0x3d, r28	; 61
    41de:	df 91       	pop	r29
    41e0:	cf 91       	pop	r28
    41e2:	1f 91       	pop	r17
    41e4:	08 95       	ret

000041e6 <.L2>:
    41e6:	81 30       	cpi	r24, 0x01	; 1
    41e8:	c9 f0       	breq	.+50     	; 0x421c <.L19>
    41ea:	82 30       	cpi	r24, 0x02	; 2
    41ec:	19 f1       	breq	.+70     	; 0x4234 <.L20>
    41ee:	11 e0       	ldi	r17, 0x01	; 1
    41f0:	83 30       	cpi	r24, 0x03	; 3
    41f2:	41 f7       	brne	.-48     	; 0x41c4 <.L15>
    41f4:	83 e0       	ldi	r24, 0x03	; 3
    41f6:	0e 94 4c 09 	call	0x1298	; 0x1298 <ikb_key_is_ready2read>
    41fa:	88 23       	and	r24, r24
    41fc:	49 f3       	breq	.-46     	; 0x41d0 <.L1>

000041fe <.L18>:
    41fe:	83 e0       	ldi	r24, 0x03	; 3
    4200:	0e 94 60 09 	call	0x12c0	; 0x12c0 <ikb_key_was_read>
    4204:	80 91 a9 06 	lds	r24, 0x06A9	; 0x8006a9 <fryer+0x38>
    4208:	8f 5f       	subi	r24, 0xFF	; 255
    420a:	80 93 a9 06 	sts	0x06A9, r24	; 0x8006a9 <fryer+0x38>
    420e:	8b e4       	ldi	r24, 0x4B	; 75
    4210:	90 e0       	ldi	r25, 0x00	; 0
    4212:	0e 94 4b 07 	call	0xe96	; 0xe96 <indicatorTimed_setKSysTickTime_ms>
    4216:	0e 94 50 07 	call	0xea0	; 0xea0 <indicatorTimed_run>
    421a:	da cf       	rjmp	.-76     	; 0x41d0 <.L1>

0000421c <.L19>:
    421c:	44 e0       	ldi	r20, 0x04	; 4
    421e:	60 e0       	ldi	r22, 0x00	; 0
    4220:	87 eb       	ldi	r24, 0xB7	; 183
    4222:	94 e0       	ldi	r25, 0x04	; 4
    4224:	0e 94 85 13 	call	0x270a	; 0x270a <disp7s_update_data_array>
    4228:	80 91 a9 06 	lds	r24, 0x06A9	; 0x8006a9 <fryer+0x38>
    422c:	8f 5f       	subi	r24, 0xFF	; 255
    422e:	80 93 a9 06 	sts	0x06A9, r24	; 0x8006a9 <fryer+0x38>
    4232:	c8 cf       	rjmp	.-112    	; 0x41c4 <.L15>

00004234 <.L20>:
    4234:	be 01       	movw	r22, r28
    4236:	6f 5f       	subi	r22, 0xFF	; 255
    4238:	7f 4f       	sbci	r23, 0xFF	; 255
    423a:	80 91 21 06 	lds	r24, 0x0621	; 0x800621 <TCtemperature>
    423e:	90 91 22 06 	lds	r25, 0x0622	; 0x800622 <TCtemperature+0x1>
    4242:	0e 94 cc 0e 	call	0x1d98	; 0x1d98 <MAX6675_formatText3dig>
    4246:	44 e0       	ldi	r20, 0x04	; 4
    4248:	64 e0       	ldi	r22, 0x04	; 4
    424a:	ce 01       	movw	r24, r28
    424c:	01 96       	adiw	r24, 0x01	; 1
    424e:	0e 94 85 13 	call	0x270a	; 0x270a <disp7s_update_data_array>
    4252:	b8 cf       	rjmp	.-144    	; 0x41c4 <.L15>

00004254 <__divmodsi4>:
    4254:	05 2e       	mov	r0, r21

00004256 <.Loc.1>:
    4256:	97 fb       	bst	r25, 7

00004258 <.Loc.2>:
    4258:	1e f4       	brtc	.+6      	; 0x4260 <.L^B1>

0000425a <.Loc.3>:
    425a:	00 94       	com	r0

0000425c <.Loc.4>:
    425c:	0e 94 41 21 	call	0x4282	; 0x4282 <__negsi2>

00004260 <.L^B1>:
    4260:	57 fd       	sbrc	r21, 7

00004262 <.Loc.6>:
    4262:	07 d0       	rcall	.+14     	; 0x4272 <__divmodsi4_neg2>

00004264 <.Loc.7>:
    4264:	0e 94 49 21 	call	0x4292	; 0x4292 <__udivmodsi4>

00004268 <.Loc.8>:
    4268:	07 fc       	sbrc	r0, 7

0000426a <.Loc.9>:
    426a:	03 d0       	rcall	.+6      	; 0x4272 <__divmodsi4_neg2>

0000426c <.Loc.10>:
    426c:	4e f4       	brtc	.+18     	; 0x4280 <__divmodsi4_exit>

0000426e <.Loc.11>:
    426e:	0c 94 41 21 	jmp	0x4282	; 0x4282 <__negsi2>

00004272 <__divmodsi4_neg2>:
    4272:	50 95       	com	r21

00004274 <.Loc.13>:
    4274:	40 95       	com	r20

00004276 <.Loc.14>:
    4276:	30 95       	com	r19

00004278 <.Loc.15>:
    4278:	21 95       	neg	r18

0000427a <.Loc.16>:
    427a:	3f 4f       	sbci	r19, 0xFF	; 255

0000427c <.Loc.17>:
    427c:	4f 4f       	sbci	r20, 0xFF	; 255

0000427e <.Loc.18>:
    427e:	5f 4f       	sbci	r21, 0xFF	; 255

00004280 <__divmodsi4_exit>:
    4280:	08 95       	ret

00004282 <__negsi2>:
    4282:	90 95       	com	r25
    4284:	80 95       	com	r24
    4286:	70 95       	com	r23
    4288:	61 95       	neg	r22
    428a:	7f 4f       	sbci	r23, 0xFF	; 255
    428c:	8f 4f       	sbci	r24, 0xFF	; 255
    428e:	9f 4f       	sbci	r25, 0xFF	; 255

00004290 <.Loc.1>:
    4290:	08 95       	ret

00004292 <__udivmodsi4>:
    4292:	a1 e2       	ldi	r26, 0x21	; 33

00004294 <.Loc.1>:
    4294:	1a 2e       	mov	r1, r26

00004296 <.Loc.2>:
    4296:	aa 1b       	sub	r26, r26

00004298 <.Loc.3>:
    4298:	bb 1b       	sub	r27, r27

0000429a <.Loc.4>:
    429a:	fd 01       	movw	r30, r26

0000429c <.Loc.5>:
    429c:	0d c0       	rjmp	.+26     	; 0x42b8 <__udivmodsi4_ep>

0000429e <__udivmodsi4_loop>:
    429e:	aa 1f       	adc	r26, r26

000042a0 <.Loc.7>:
    42a0:	bb 1f       	adc	r27, r27

000042a2 <.Loc.8>:
    42a2:	ee 1f       	adc	r30, r30

000042a4 <.Loc.9>:
    42a4:	ff 1f       	adc	r31, r31

000042a6 <.Loc.10>:
    42a6:	a2 17       	cp	r26, r18

000042a8 <.Loc.11>:
    42a8:	b3 07       	cpc	r27, r19

000042aa <.Loc.12>:
    42aa:	e4 07       	cpc	r30, r20

000042ac <.Loc.13>:
    42ac:	f5 07       	cpc	r31, r21

000042ae <.Loc.14>:
    42ae:	20 f0       	brcs	.+8      	; 0x42b8 <__udivmodsi4_ep>

000042b0 <.Loc.15>:
    42b0:	a2 1b       	sub	r26, r18

000042b2 <.Loc.16>:
    42b2:	b3 0b       	sbc	r27, r19

000042b4 <.Loc.17>:
    42b4:	e4 0b       	sbc	r30, r20

000042b6 <.Loc.18>:
    42b6:	f5 0b       	sbc	r31, r21

000042b8 <__udivmodsi4_ep>:
    42b8:	66 1f       	adc	r22, r22

000042ba <.Loc.20>:
    42ba:	77 1f       	adc	r23, r23

000042bc <.Loc.21>:
    42bc:	88 1f       	adc	r24, r24

000042be <.Loc.22>:
    42be:	99 1f       	adc	r25, r25

000042c0 <.Loc.23>:
    42c0:	1a 94       	dec	r1

000042c2 <.Loc.24>:
    42c2:	69 f7       	brne	.-38     	; 0x429e <__udivmodsi4_loop>

000042c4 <.Loc.25>:
    42c4:	60 95       	com	r22

000042c6 <.Loc.26>:
    42c6:	70 95       	com	r23

000042c8 <.Loc.27>:
    42c8:	80 95       	com	r24

000042ca <.Loc.28>:
    42ca:	90 95       	com	r25

000042cc <.Loc.29>:
    42cc:	9b 01       	movw	r18, r22

000042ce <.Loc.30>:
    42ce:	ac 01       	movw	r20, r24

000042d0 <.Loc.31>:
    42d0:	bd 01       	movw	r22, r26

000042d2 <.Loc.32>:
    42d2:	cf 01       	movw	r24, r30

000042d4 <.Loc.33>:
    42d4:	08 95       	ret

000042d6 <__subsf3>:
    42d6:	50 58       	subi	r21, 0x80	; 128

000042d8 <__addsf3>:
    42d8:	bb 27       	eor	r27, r27
    42da:	aa 27       	eor	r26, r26
    42dc:	0e 94 83 21 	call	0x4306	; 0x4306 <__addsf3x>
    42e0:	0c 94 fd 22 	jmp	0x45fa	; 0x45fa <__fp_round>

000042e4 <.L^B1>:
    42e4:	0e 94 ef 22 	call	0x45de	; 0x45de <__fp_pscA>
    42e8:	38 f0       	brcs	.+14     	; 0x42f8 <.L_nan>
    42ea:	0e 94 f6 22 	call	0x45ec	; 0x45ec <__fp_pscB>
    42ee:	20 f0       	brcs	.+8      	; 0x42f8 <.L_nan>
    42f0:	39 f4       	brne	.+14     	; 0x4300 <.L_inf>
    42f2:	9f 3f       	cpi	r25, 0xFF	; 255
    42f4:	19 f4       	brne	.+6      	; 0x42fc <.L_infB>
    42f6:	26 f4       	brtc	.+8      	; 0x4300 <.L_inf>

000042f8 <.L_nan>:
    42f8:	0c 94 ec 22 	jmp	0x45d8	; 0x45d8 <__fp_nan>

000042fc <.L_infB>:
    42fc:	0e f4       	brtc	.+2      	; 0x4300 <.L_inf>
    42fe:	e0 95       	com	r30

00004300 <.L_inf>:
    4300:	e7 fb       	bst	r30, 7
    4302:	0c 94 e6 22 	jmp	0x45cc	; 0x45cc <__fp_inf>

00004306 <__addsf3x>:
    4306:	e9 2f       	mov	r30, r25
    4308:	0e 94 0e 23 	call	0x461c	; 0x461c <__fp_split3>
    430c:	58 f3       	brcs	.-42     	; 0x42e4 <.L^B1>
    430e:	ba 17       	cp	r27, r26
    4310:	62 07       	cpc	r22, r18
    4312:	73 07       	cpc	r23, r19
    4314:	84 07       	cpc	r24, r20
    4316:	95 07       	cpc	r25, r21
    4318:	20 f0       	brcs	.+8      	; 0x4322 <.L2^B1>
    431a:	79 f4       	brne	.+30     	; 0x433a <.L4^B1>
    431c:	a6 f5       	brtc	.+104    	; 0x4386 <.L_add>
    431e:	0c 94 30 23 	jmp	0x4660	; 0x4660 <__fp_zero>

00004322 <.L2^B1>:
    4322:	0e f4       	brtc	.+2      	; 0x4326 <.L3^B1>
    4324:	e0 95       	com	r30

00004326 <.L3^B1>:
    4326:	0b 2e       	mov	r0, r27
    4328:	ba 2f       	mov	r27, r26
    432a:	a0 2d       	mov	r26, r0
    432c:	0b 01       	movw	r0, r22
    432e:	b9 01       	movw	r22, r18
    4330:	90 01       	movw	r18, r0
    4332:	0c 01       	movw	r0, r24
    4334:	ca 01       	movw	r24, r20
    4336:	a0 01       	movw	r20, r0
    4338:	11 24       	eor	r1, r1

0000433a <.L4^B1>:
    433a:	ff 27       	eor	r31, r31
    433c:	59 1b       	sub	r21, r25

0000433e <.L5^B1>:
    433e:	99 f0       	breq	.+38     	; 0x4366 <.L7^B1>
    4340:	59 3f       	cpi	r21, 0xF9	; 249
    4342:	50 f4       	brcc	.+20     	; 0x4358 <.L6^B1>
    4344:	50 3e       	cpi	r21, 0xE0	; 224
    4346:	68 f1       	brcs	.+90     	; 0x43a2 <.L_ret>
    4348:	1a 16       	cp	r1, r26
    434a:	f0 40       	sbci	r31, 0x00	; 0
    434c:	a2 2f       	mov	r26, r18
    434e:	23 2f       	mov	r18, r19
    4350:	34 2f       	mov	r19, r20
    4352:	44 27       	eor	r20, r20
    4354:	58 5f       	subi	r21, 0xF8	; 248
    4356:	f3 cf       	rjmp	.-26     	; 0x433e <.L5^B1>

00004358 <.L6^B1>:
    4358:	46 95       	lsr	r20
    435a:	37 95       	ror	r19
    435c:	27 95       	ror	r18
    435e:	a7 95       	ror	r26
    4360:	f0 40       	sbci	r31, 0x00	; 0
    4362:	53 95       	inc	r21
    4364:	c9 f7       	brne	.-14     	; 0x4358 <.L6^B1>

00004366 <.L7^B1>:
    4366:	7e f4       	brtc	.+30     	; 0x4386 <.L_add>
    4368:	1f 16       	cp	r1, r31
    436a:	ba 0b       	sbc	r27, r26
    436c:	62 0b       	sbc	r22, r18
    436e:	73 0b       	sbc	r23, r19
    4370:	84 0b       	sbc	r24, r20
    4372:	ba f0       	brmi	.+46     	; 0x43a2 <.L_ret>

00004374 <.L8^B1>:
    4374:	91 50       	subi	r25, 0x01	; 1
    4376:	a1 f0       	breq	.+40     	; 0x43a0 <.L9^B1>
    4378:	ff 0f       	add	r31, r31
    437a:	bb 1f       	adc	r27, r27
    437c:	66 1f       	adc	r22, r22
    437e:	77 1f       	adc	r23, r23
    4380:	88 1f       	adc	r24, r24
    4382:	c2 f7       	brpl	.-16     	; 0x4374 <.L8^B1>
    4384:	0e c0       	rjmp	.+28     	; 0x43a2 <.L_ret>

00004386 <.L_add>:
    4386:	ba 0f       	add	r27, r26
    4388:	62 1f       	adc	r22, r18
    438a:	73 1f       	adc	r23, r19
    438c:	84 1f       	adc	r24, r20
    438e:	48 f4       	brcc	.+18     	; 0x43a2 <.L_ret>
    4390:	87 95       	ror	r24
    4392:	77 95       	ror	r23
    4394:	67 95       	ror	r22
    4396:	b7 95       	ror	r27
    4398:	f7 95       	ror	r31
    439a:	9e 3f       	cpi	r25, 0xFE	; 254
    439c:	08 f0       	brcs	.+2      	; 0x43a0 <.L9^B1>
    439e:	b0 cf       	rjmp	.-160    	; 0x4300 <.L_inf>

000043a0 <.L9^B1>:
    43a0:	93 95       	inc	r25

000043a2 <.L_ret>:
    43a2:	88 0f       	add	r24, r24
    43a4:	08 f0       	brcs	.+2      	; 0x43a8 <.L1^B1>
    43a6:	99 27       	eor	r25, r25

000043a8 <.L1^B1>:
    43a8:	ee 0f       	add	r30, r30
    43aa:	97 95       	ror	r25
    43ac:	87 95       	ror	r24
    43ae:	08 95       	ret

000043b0 <__cmpsf2>:
    43b0:	0e 94 c2 22 	call	0x4584	; 0x4584 <__fp_cmp>
    43b4:	08 f4       	brcc	.+2      	; 0x43b8 <.L1^B1>
    43b6:	81 e0       	ldi	r24, 0x01	; 1

000043b8 <.L1^B1>:
    43b8:	08 95       	ret

000043ba <__divsf3>:
    43ba:	0e 94 f1 21 	call	0x43e2	; 0x43e2 <__divsf3x>
    43be:	0c 94 fd 22 	jmp	0x45fa	; 0x45fa <__fp_round>

000043c2 <.L^B1>:
    43c2:	0e 94 f6 22 	call	0x45ec	; 0x45ec <__fp_pscB>
    43c6:	58 f0       	brcs	.+22     	; 0x43de <.L_nan>
    43c8:	0e 94 ef 22 	call	0x45de	; 0x45de <__fp_pscA>
    43cc:	40 f0       	brcs	.+16     	; 0x43de <.L_nan>
    43ce:	29 f4       	brne	.+10     	; 0x43da <.L_zr>
    43d0:	5f 3f       	cpi	r21, 0xFF	; 255
    43d2:	29 f0       	breq	.+10     	; 0x43de <.L_nan>

000043d4 <.L_inf>:
    43d4:	0c 94 e6 22 	jmp	0x45cc	; 0x45cc <__fp_inf>

000043d8 <.L1^B1>:
    43d8:	51 11       	cpse	r21, r1

000043da <.L_zr>:
    43da:	0c 94 31 23 	jmp	0x4662	; 0x4662 <__fp_szero>

000043de <.L_nan>:
    43de:	0c 94 ec 22 	jmp	0x45d8	; 0x45d8 <__fp_nan>

000043e2 <__divsf3x>:
    43e2:	0e 94 0e 23 	call	0x461c	; 0x461c <__fp_split3>
    43e6:	68 f3       	brcs	.-38     	; 0x43c2 <.L^B1>

000043e8 <__divsf3_pse>:
    43e8:	99 23       	and	r25, r25
    43ea:	b1 f3       	breq	.-20     	; 0x43d8 <.L1^B1>
    43ec:	55 23       	and	r21, r21
    43ee:	91 f3       	breq	.-28     	; 0x43d4 <.L_inf>
    43f0:	95 1b       	sub	r25, r21
    43f2:	55 0b       	sbc	r21, r21
    43f4:	bb 27       	eor	r27, r27
    43f6:	aa 27       	eor	r26, r26

000043f8 <.L2^B1>:
    43f8:	62 17       	cp	r22, r18
    43fa:	73 07       	cpc	r23, r19
    43fc:	84 07       	cpc	r24, r20
    43fe:	38 f0       	brcs	.+14     	; 0x440e <.L3^B1>
    4400:	9f 5f       	subi	r25, 0xFF	; 255
    4402:	5f 4f       	sbci	r21, 0xFF	; 255
    4404:	22 0f       	add	r18, r18
    4406:	33 1f       	adc	r19, r19
    4408:	44 1f       	adc	r20, r20
    440a:	aa 1f       	adc	r26, r26
    440c:	a9 f3       	breq	.-22     	; 0x43f8 <.L2^B1>

0000440e <.L3^B1>:
    440e:	35 d0       	rcall	.+106    	; 0x447a <.L_div>
    4410:	0e 2e       	mov	r0, r30
    4412:	3a f0       	brmi	.+14     	; 0x4422 <.L5^B1>

00004414 <.L4^B1>:
    4414:	e0 e8       	ldi	r30, 0x80	; 128
    4416:	32 d0       	rcall	.+100    	; 0x447c <.L_div1>
    4418:	91 50       	subi	r25, 0x01	; 1
    441a:	50 40       	sbci	r21, 0x00	; 0
    441c:	e6 95       	lsr	r30
    441e:	00 1c       	adc	r0, r0
    4420:	ca f7       	brpl	.-14     	; 0x4414 <.L4^B1>

00004422 <.L5^B1>:
    4422:	2b d0       	rcall	.+86     	; 0x447a <.L_div>
    4424:	fe 2f       	mov	r31, r30
    4426:	29 d0       	rcall	.+82     	; 0x447a <.L_div>
    4428:	66 0f       	add	r22, r22
    442a:	77 1f       	adc	r23, r23
    442c:	88 1f       	adc	r24, r24
    442e:	bb 1f       	adc	r27, r27
    4430:	26 17       	cp	r18, r22
    4432:	37 07       	cpc	r19, r23
    4434:	48 07       	cpc	r20, r24
    4436:	ab 07       	cpc	r26, r27
    4438:	b0 e8       	ldi	r27, 0x80	; 128
    443a:	09 f0       	breq	.+2      	; 0x443e <.L4^B2>
    443c:	bb 0b       	sbc	r27, r27

0000443e <.L4^B2>:
    443e:	80 2d       	mov	r24, r0
    4440:	bf 01       	movw	r22, r30
    4442:	ff 27       	eor	r31, r31
    4444:	93 58       	subi	r25, 0x83	; 131
    4446:	5f 4f       	sbci	r21, 0xFF	; 255
    4448:	3a f0       	brmi	.+14     	; 0x4458 <.L13^B1>
    444a:	9e 3f       	cpi	r25, 0xFE	; 254
    444c:	51 05       	cpc	r21, r1
    444e:	78 f0       	brcs	.+30     	; 0x446e <.L15^B1>
    4450:	0c 94 e6 22 	jmp	0x45cc	; 0x45cc <__fp_inf>

00004454 <.L12^B1>:
    4454:	0c 94 31 23 	jmp	0x4662	; 0x4662 <__fp_szero>

00004458 <.L13^B1>:
    4458:	5f 3f       	cpi	r21, 0xFF	; 255
    445a:	e4 f3       	brlt	.-8      	; 0x4454 <.L12^B1>
    445c:	98 3e       	cpi	r25, 0xE8	; 232
    445e:	d4 f3       	brlt	.-12     	; 0x4454 <.L12^B1>

00004460 <.L14^B1>:
    4460:	86 95       	lsr	r24
    4462:	77 95       	ror	r23
    4464:	67 95       	ror	r22
    4466:	b7 95       	ror	r27
    4468:	f7 95       	ror	r31
    446a:	9f 5f       	subi	r25, 0xFF	; 255
    446c:	c9 f7       	brne	.-14     	; 0x4460 <.L14^B1>

0000446e <.L15^B1>:
    446e:	88 0f       	add	r24, r24
    4470:	91 1d       	adc	r25, r1
    4472:	96 95       	lsr	r25
    4474:	87 95       	ror	r24
    4476:	97 f9       	bld	r25, 7
    4478:	08 95       	ret

0000447a <.L_div>:
    447a:	e1 e0       	ldi	r30, 0x01	; 1

0000447c <.L_div1>:
    447c:	66 0f       	add	r22, r22
    447e:	77 1f       	adc	r23, r23
    4480:	88 1f       	adc	r24, r24
    4482:	bb 1f       	adc	r27, r27
    4484:	62 17       	cp	r22, r18
    4486:	73 07       	cpc	r23, r19
    4488:	84 07       	cpc	r24, r20
    448a:	ba 07       	cpc	r27, r26
    448c:	20 f0       	brcs	.+8      	; 0x4496 <.L2^B2>
    448e:	62 1b       	sub	r22, r18
    4490:	73 0b       	sbc	r23, r19
    4492:	84 0b       	sbc	r24, r20
    4494:	ba 0b       	sbc	r27, r26

00004496 <.L2^B2>:
    4496:	ee 1f       	adc	r30, r30
    4498:	88 f7       	brcc	.-30     	; 0x447c <.L_div1>
    449a:	e0 95       	com	r30
    449c:	08 95       	ret

0000449e <__fixsfsi>:
    449e:	0e 94 56 22 	call	0x44ac	; 0x44ac <__fixunssfsi>
    44a2:	68 94       	set
    44a4:	b1 11       	cpse	r27, r1
    44a6:	0c 94 31 23 	jmp	0x4662	; 0x4662 <__fp_szero>
    44aa:	08 95       	ret

000044ac <__fixunssfsi>:
    44ac:	0e 94 16 23 	call	0x462c	; 0x462c <__fp_splitA>
    44b0:	88 f0       	brcs	.+34     	; 0x44d4 <.L_err>
    44b2:	9f 57       	subi	r25, 0x7F	; 127
    44b4:	98 f0       	brcs	.+38     	; 0x44dc <.L_zr>
    44b6:	b9 2f       	mov	r27, r25
    44b8:	99 27       	eor	r25, r25
    44ba:	b7 51       	subi	r27, 0x17	; 23
    44bc:	b0 f0       	brcs	.+44     	; 0x44ea <.L4^B1>
    44be:	e1 f0       	breq	.+56     	; 0x44f8 <.L_sign>

000044c0 <.L1^B1>:
    44c0:	66 0f       	add	r22, r22
    44c2:	77 1f       	adc	r23, r23
    44c4:	88 1f       	adc	r24, r24
    44c6:	99 1f       	adc	r25, r25
    44c8:	1a f0       	brmi	.+6      	; 0x44d0 <.L2^B1>
    44ca:	ba 95       	dec	r27
    44cc:	c9 f7       	brne	.-14     	; 0x44c0 <.L1^B1>
    44ce:	14 c0       	rjmp	.+40     	; 0x44f8 <.L_sign>

000044d0 <.L2^B1>:
    44d0:	b1 30       	cpi	r27, 0x01	; 1
    44d2:	91 f0       	breq	.+36     	; 0x44f8 <.L_sign>

000044d4 <.L_err>:
    44d4:	0e 94 30 23 	call	0x4660	; 0x4660 <__fp_zero>
    44d8:	b1 e0       	ldi	r27, 0x01	; 1
    44da:	08 95       	ret

000044dc <.L_zr>:
    44dc:	0c 94 30 23 	jmp	0x4660	; 0x4660 <__fp_zero>

000044e0 <.L3^B1>:
    44e0:	67 2f       	mov	r22, r23
    44e2:	78 2f       	mov	r23, r24
    44e4:	88 27       	eor	r24, r24
    44e6:	b8 5f       	subi	r27, 0xF8	; 248
    44e8:	39 f0       	breq	.+14     	; 0x44f8 <.L_sign>

000044ea <.L4^B1>:
    44ea:	b9 3f       	cpi	r27, 0xF9	; 249
    44ec:	cc f3       	brlt	.-14     	; 0x44e0 <.L3^B1>

000044ee <.L5^B1>:
    44ee:	86 95       	lsr	r24
    44f0:	77 95       	ror	r23
    44f2:	67 95       	ror	r22
    44f4:	b3 95       	inc	r27
    44f6:	d9 f7       	brne	.-10     	; 0x44ee <.L5^B1>

000044f8 <.L_sign>:
    44f8:	3e f4       	brtc	.+14     	; 0x4508 <.L6^B1>
    44fa:	90 95       	com	r25
    44fc:	80 95       	com	r24
    44fe:	70 95       	com	r23
    4500:	61 95       	neg	r22
    4502:	7f 4f       	sbci	r23, 0xFF	; 255
    4504:	8f 4f       	sbci	r24, 0xFF	; 255
    4506:	9f 4f       	sbci	r25, 0xFF	; 255

00004508 <.L6^B1>:
    4508:	08 95       	ret

0000450a <__floatunsisf>:
    450a:	e8 94       	clt
    450c:	09 c0       	rjmp	.+18     	; 0x4520 <.L1^B1>

0000450e <__floatsisf>:
    450e:	97 fb       	bst	r25, 7
    4510:	3e f4       	brtc	.+14     	; 0x4520 <.L1^B1>
    4512:	90 95       	com	r25
    4514:	80 95       	com	r24
    4516:	70 95       	com	r23
    4518:	61 95       	neg	r22
    451a:	7f 4f       	sbci	r23, 0xFF	; 255
    451c:	8f 4f       	sbci	r24, 0xFF	; 255
    451e:	9f 4f       	sbci	r25, 0xFF	; 255

00004520 <.L1^B1>:
    4520:	99 23       	and	r25, r25
    4522:	a9 f0       	breq	.+42     	; 0x454e <.L4^B1>
    4524:	f9 2f       	mov	r31, r25
    4526:	96 e9       	ldi	r25, 0x96	; 150
    4528:	bb 27       	eor	r27, r27

0000452a <.L2^B1>:
    452a:	93 95       	inc	r25
    452c:	f6 95       	lsr	r31
    452e:	87 95       	ror	r24
    4530:	77 95       	ror	r23
    4532:	67 95       	ror	r22
    4534:	b7 95       	ror	r27
    4536:	f1 11       	cpse	r31, r1
    4538:	f8 cf       	rjmp	.-16     	; 0x452a <.L2^B1>
    453a:	fa f4       	brpl	.+62     	; 0x457a <.L_pack>
    453c:	bb 0f       	add	r27, r27
    453e:	11 f4       	brne	.+4      	; 0x4544 <.L3^B1>
    4540:	60 ff       	sbrs	r22, 0
    4542:	1b c0       	rjmp	.+54     	; 0x457a <.L_pack>

00004544 <.L3^B1>:
    4544:	6f 5f       	subi	r22, 0xFF	; 255
    4546:	7f 4f       	sbci	r23, 0xFF	; 255
    4548:	8f 4f       	sbci	r24, 0xFF	; 255
    454a:	9f 4f       	sbci	r25, 0xFF	; 255
    454c:	16 c0       	rjmp	.+44     	; 0x457a <.L_pack>

0000454e <.L4^B1>:
    454e:	88 23       	and	r24, r24
    4550:	11 f0       	breq	.+4      	; 0x4556 <.L5^B1>
    4552:	96 e9       	ldi	r25, 0x96	; 150
    4554:	11 c0       	rjmp	.+34     	; 0x4578 <.L8^B1>

00004556 <.L5^B1>:
    4556:	77 23       	and	r23, r23
    4558:	21 f0       	breq	.+8      	; 0x4562 <.L6^B1>
    455a:	9e e8       	ldi	r25, 0x8E	; 142
    455c:	87 2f       	mov	r24, r23
    455e:	76 2f       	mov	r23, r22
    4560:	05 c0       	rjmp	.+10     	; 0x456c <.L7^B1>

00004562 <.L6^B1>:
    4562:	66 23       	and	r22, r22
    4564:	71 f0       	breq	.+28     	; 0x4582 <.L9^B1>
    4566:	96 e8       	ldi	r25, 0x86	; 134
    4568:	86 2f       	mov	r24, r22
    456a:	70 e0       	ldi	r23, 0x00	; 0

0000456c <.L7^B1>:
    456c:	60 e0       	ldi	r22, 0x00	; 0
    456e:	2a f0       	brmi	.+10     	; 0x457a <.L_pack>

00004570 <.L10^B1>:
    4570:	9a 95       	dec	r25
    4572:	66 0f       	add	r22, r22
    4574:	77 1f       	adc	r23, r23
    4576:	88 1f       	adc	r24, r24

00004578 <.L8^B1>:
    4578:	da f7       	brpl	.-10     	; 0x4570 <.L10^B1>

0000457a <.L_pack>:
    457a:	88 0f       	add	r24, r24
    457c:	96 95       	lsr	r25
    457e:	87 95       	ror	r24
    4580:	97 f9       	bld	r25, 7

00004582 <.L9^B1>:
    4582:	08 95       	ret

00004584 <__fp_cmp>:
    4584:	99 0f       	add	r25, r25
    4586:	00 08       	sbc	r0, r0
    4588:	55 0f       	add	r21, r21
    458a:	aa 0b       	sbc	r26, r26
    458c:	e0 e8       	ldi	r30, 0x80	; 128
    458e:	fe ef       	ldi	r31, 0xFE	; 254
    4590:	16 16       	cp	r1, r22
    4592:	17 06       	cpc	r1, r23
    4594:	e8 07       	cpc	r30, r24
    4596:	f9 07       	cpc	r31, r25
    4598:	c0 f0       	brcs	.+48     	; 0x45ca <.L9^B1>
    459a:	12 16       	cp	r1, r18
    459c:	13 06       	cpc	r1, r19
    459e:	e4 07       	cpc	r30, r20
    45a0:	f5 07       	cpc	r31, r21
    45a2:	98 f0       	brcs	.+38     	; 0x45ca <.L9^B1>
    45a4:	62 1b       	sub	r22, r18
    45a6:	73 0b       	sbc	r23, r19
    45a8:	84 0b       	sbc	r24, r20
    45aa:	95 0b       	sbc	r25, r21
    45ac:	39 f4       	brne	.+14     	; 0x45bc <.L1^B1>
    45ae:	0a 26       	eor	r0, r26
    45b0:	61 f0       	breq	.+24     	; 0x45ca <.L9^B1>
    45b2:	23 2b       	or	r18, r19
    45b4:	24 2b       	or	r18, r20
    45b6:	25 2b       	or	r18, r21
    45b8:	21 f4       	brne	.+8      	; 0x45c2 <.L2^B1>
    45ba:	08 95       	ret

000045bc <.L1^B1>:
    45bc:	0a 26       	eor	r0, r26
    45be:	09 f4       	brne	.+2      	; 0x45c2 <.L2^B1>
    45c0:	a1 40       	sbci	r26, 0x01	; 1

000045c2 <.L2^B1>:
    45c2:	a6 95       	lsr	r26
    45c4:	8f ef       	ldi	r24, 0xFF	; 255
    45c6:	81 1d       	adc	r24, r1
    45c8:	81 1d       	adc	r24, r1

000045ca <.L9^B1>:
    45ca:	08 95       	ret

000045cc <__fp_inf>:
    45cc:	97 f9       	bld	r25, 7
    45ce:	9f 67       	ori	r25, 0x7F	; 127
    45d0:	80 e8       	ldi	r24, 0x80	; 128
    45d2:	70 e0       	ldi	r23, 0x00	; 0
    45d4:	60 e0       	ldi	r22, 0x00	; 0
    45d6:	08 95       	ret

000045d8 <__fp_nan>:
    45d8:	9f ef       	ldi	r25, 0xFF	; 255
    45da:	80 ec       	ldi	r24, 0xC0	; 192
    45dc:	08 95       	ret

000045de <__fp_pscA>:
    45de:	00 24       	eor	r0, r0
    45e0:	0a 94       	dec	r0
    45e2:	16 16       	cp	r1, r22
    45e4:	17 06       	cpc	r1, r23
    45e6:	18 06       	cpc	r1, r24
    45e8:	09 06       	cpc	r0, r25
    45ea:	08 95       	ret

000045ec <__fp_pscB>:
    45ec:	00 24       	eor	r0, r0
    45ee:	0a 94       	dec	r0
    45f0:	12 16       	cp	r1, r18
    45f2:	13 06       	cpc	r1, r19
    45f4:	14 06       	cpc	r1, r20
    45f6:	05 06       	cpc	r0, r21
    45f8:	08 95       	ret

000045fa <__fp_round>:
    45fa:	09 2e       	mov	r0, r25
    45fc:	03 94       	inc	r0
    45fe:	00 0c       	add	r0, r0
    4600:	11 f4       	brne	.+4      	; 0x4606 <.L1^B1>
    4602:	88 23       	and	r24, r24
    4604:	52 f0       	brmi	.+20     	; 0x461a <.L3^B1>

00004606 <.L1^B1>:
    4606:	bb 0f       	add	r27, r27
    4608:	40 f4       	brcc	.+16     	; 0x461a <.L3^B1>
    460a:	bf 2b       	or	r27, r31
    460c:	11 f4       	brne	.+4      	; 0x4612 <.L2^B1>
    460e:	60 ff       	sbrs	r22, 0
    4610:	04 c0       	rjmp	.+8      	; 0x461a <.L3^B1>

00004612 <.L2^B1>:
    4612:	6f 5f       	subi	r22, 0xFF	; 255
    4614:	7f 4f       	sbci	r23, 0xFF	; 255
    4616:	8f 4f       	sbci	r24, 0xFF	; 255
    4618:	9f 4f       	sbci	r25, 0xFF	; 255

0000461a <.L3^B1>:
    461a:	08 95       	ret

0000461c <__fp_split3>:
    461c:	57 fd       	sbrc	r21, 7
    461e:	90 58       	subi	r25, 0x80	; 128
    4620:	44 0f       	add	r20, r20
    4622:	55 1f       	adc	r21, r21
    4624:	59 f0       	breq	.+22     	; 0x463c <.L4^B1>
    4626:	5f 3f       	cpi	r21, 0xFF	; 255
    4628:	71 f0       	breq	.+28     	; 0x4646 <.L5^B1>

0000462a <.L1^B1>:
    462a:	47 95       	ror	r20

0000462c <__fp_splitA>:
    462c:	88 0f       	add	r24, r24
    462e:	97 fb       	bst	r25, 7
    4630:	99 1f       	adc	r25, r25
    4632:	61 f0       	breq	.+24     	; 0x464c <.L6^B1>
    4634:	9f 3f       	cpi	r25, 0xFF	; 255
    4636:	79 f0       	breq	.+30     	; 0x4656 <.L7^B1>

00004638 <.L3^B1>:
    4638:	87 95       	ror	r24
    463a:	08 95       	ret

0000463c <.L4^B1>:
    463c:	12 16       	cp	r1, r18
    463e:	13 06       	cpc	r1, r19
    4640:	14 06       	cpc	r1, r20
    4642:	55 1f       	adc	r21, r21
    4644:	f2 cf       	rjmp	.-28     	; 0x462a <.L1^B1>

00004646 <.L5^B1>:
    4646:	46 95       	lsr	r20
    4648:	f1 df       	rcall	.-30     	; 0x462c <__fp_splitA>
    464a:	08 c0       	rjmp	.+16     	; 0x465c <.L8^B1>

0000464c <.L6^B1>:
    464c:	16 16       	cp	r1, r22
    464e:	17 06       	cpc	r1, r23
    4650:	18 06       	cpc	r1, r24
    4652:	99 1f       	adc	r25, r25
    4654:	f1 cf       	rjmp	.-30     	; 0x4638 <.L3^B1>

00004656 <.L7^B1>:
    4656:	86 95       	lsr	r24
    4658:	71 05       	cpc	r23, r1
    465a:	61 05       	cpc	r22, r1

0000465c <.L8^B1>:
    465c:	08 94       	sec
    465e:	08 95       	ret

00004660 <__fp_zero>:
    4660:	e8 94       	clt

00004662 <__fp_szero>:
    4662:	bb 27       	eor	r27, r27
    4664:	66 27       	eor	r22, r22
    4666:	77 27       	eor	r23, r23
    4668:	cb 01       	movw	r24, r22
    466a:	97 f9       	bld	r25, 7
    466c:	08 95       	ret

0000466e <__gesf2>:
    466e:	0e 94 c2 22 	call	0x4584	; 0x4584 <__fp_cmp>
    4672:	08 f4       	brcc	.+2      	; 0x4676 <.L1^B1>
    4674:	8f ef       	ldi	r24, 0xFF	; 255

00004676 <.L1^B1>:
    4676:	08 95       	ret

00004678 <__mulsf3>:
    4678:	0e 94 4f 23 	call	0x469e	; 0x469e <__mulsf3x>
    467c:	0c 94 fd 22 	jmp	0x45fa	; 0x45fa <__fp_round>

00004680 <.L^B1>:
    4680:	0e 94 ef 22 	call	0x45de	; 0x45de <__fp_pscA>
    4684:	38 f0       	brcs	.+14     	; 0x4694 <.L1^B1>
    4686:	0e 94 f6 22 	call	0x45ec	; 0x45ec <__fp_pscB>
    468a:	20 f0       	brcs	.+8      	; 0x4694 <.L1^B1>
    468c:	95 23       	and	r25, r21
    468e:	11 f0       	breq	.+4      	; 0x4694 <.L1^B1>
    4690:	0c 94 e6 22 	jmp	0x45cc	; 0x45cc <__fp_inf>

00004694 <.L1^B1>:
    4694:	0c 94 ec 22 	jmp	0x45d8	; 0x45d8 <__fp_nan>

00004698 <.L2^B1>:
    4698:	11 24       	eor	r1, r1
    469a:	0c 94 31 23 	jmp	0x4662	; 0x4662 <__fp_szero>

0000469e <__mulsf3x>:
    469e:	0e 94 0e 23 	call	0x461c	; 0x461c <__fp_split3>
    46a2:	70 f3       	brcs	.-36     	; 0x4680 <.L^B1>

000046a4 <__mulsf3_pse>:
    46a4:	95 9f       	mul	r25, r21
    46a6:	c1 f3       	breq	.-16     	; 0x4698 <.L2^B1>
    46a8:	95 0f       	add	r25, r21
    46aa:	50 e0       	ldi	r21, 0x00	; 0
    46ac:	55 1f       	adc	r21, r21
    46ae:	62 9f       	mul	r22, r18
    46b0:	f0 01       	movw	r30, r0
    46b2:	72 9f       	mul	r23, r18
    46b4:	bb 27       	eor	r27, r27
    46b6:	f0 0d       	add	r31, r0
    46b8:	b1 1d       	adc	r27, r1
    46ba:	63 9f       	mul	r22, r19
    46bc:	aa 27       	eor	r26, r26
    46be:	f0 0d       	add	r31, r0
    46c0:	b1 1d       	adc	r27, r1
    46c2:	aa 1f       	adc	r26, r26
    46c4:	64 9f       	mul	r22, r20
    46c6:	66 27       	eor	r22, r22
    46c8:	b0 0d       	add	r27, r0
    46ca:	a1 1d       	adc	r26, r1
    46cc:	66 1f       	adc	r22, r22
    46ce:	82 9f       	mul	r24, r18
    46d0:	22 27       	eor	r18, r18
    46d2:	b0 0d       	add	r27, r0
    46d4:	a1 1d       	adc	r26, r1
    46d6:	62 1f       	adc	r22, r18
    46d8:	73 9f       	mul	r23, r19
    46da:	b0 0d       	add	r27, r0
    46dc:	a1 1d       	adc	r26, r1
    46de:	62 1f       	adc	r22, r18
    46e0:	83 9f       	mul	r24, r19
    46e2:	a0 0d       	add	r26, r0
    46e4:	61 1d       	adc	r22, r1
    46e6:	22 1f       	adc	r18, r18
    46e8:	74 9f       	mul	r23, r20
    46ea:	33 27       	eor	r19, r19
    46ec:	a0 0d       	add	r26, r0
    46ee:	61 1d       	adc	r22, r1
    46f0:	23 1f       	adc	r18, r19
    46f2:	84 9f       	mul	r24, r20
    46f4:	60 0d       	add	r22, r0
    46f6:	21 1d       	adc	r18, r1
    46f8:	82 2f       	mov	r24, r18
    46fa:	76 2f       	mov	r23, r22
    46fc:	6a 2f       	mov	r22, r26
    46fe:	11 24       	eor	r1, r1
    4700:	9f 57       	subi	r25, 0x7F	; 127
    4702:	50 40       	sbci	r21, 0x00	; 0
    4704:	9a f0       	brmi	.+38     	; 0x472c <.L13^B1>
    4706:	f1 f0       	breq	.+60     	; 0x4744 <.L15^B1>

00004708 <.L10^B1>:
    4708:	88 23       	and	r24, r24
    470a:	4a f0       	brmi	.+18     	; 0x471e <.L11^B1>
    470c:	ee 0f       	add	r30, r30
    470e:	ff 1f       	adc	r31, r31
    4710:	bb 1f       	adc	r27, r27
    4712:	66 1f       	adc	r22, r22
    4714:	77 1f       	adc	r23, r23
    4716:	88 1f       	adc	r24, r24
    4718:	91 50       	subi	r25, 0x01	; 1
    471a:	50 40       	sbci	r21, 0x00	; 0
    471c:	a9 f7       	brne	.-22     	; 0x4708 <.L10^B1>

0000471e <.L11^B1>:
    471e:	9e 3f       	cpi	r25, 0xFE	; 254
    4720:	51 05       	cpc	r21, r1
    4722:	80 f0       	brcs	.+32     	; 0x4744 <.L15^B1>
    4724:	0c 94 e6 22 	jmp	0x45cc	; 0x45cc <__fp_inf>

00004728 <.L12^B1>:
    4728:	0c 94 31 23 	jmp	0x4662	; 0x4662 <__fp_szero>

0000472c <.L13^B1>:
    472c:	5f 3f       	cpi	r21, 0xFF	; 255
    472e:	e4 f3       	brlt	.-8      	; 0x4728 <.L12^B1>
    4730:	98 3e       	cpi	r25, 0xE8	; 232
    4732:	d4 f3       	brlt	.-12     	; 0x4728 <.L12^B1>

00004734 <.L14^B1>:
    4734:	86 95       	lsr	r24
    4736:	77 95       	ror	r23
    4738:	67 95       	ror	r22
    473a:	b7 95       	ror	r27
    473c:	f7 95       	ror	r31
    473e:	e7 95       	ror	r30
    4740:	9f 5f       	subi	r25, 0xFF	; 255
    4742:	c1 f7       	brne	.-16     	; 0x4734 <.L14^B1>

00004744 <.L15^B1>:
    4744:	fe 2b       	or	r31, r30
    4746:	88 0f       	add	r24, r24
    4748:	91 1d       	adc	r25, r1
    474a:	96 95       	lsr	r25
    474c:	87 95       	ror	r24
    474e:	97 f9       	bld	r25, 7
    4750:	08 95       	ret

00004752 <memmove>:
    4752:	68 17       	cp	r22, r24
    4754:	79 07       	cpc	r23, r25
    4756:	68 f4       	brcc	.+26     	; 0x4772 <.L_memmove_fwd>
    4758:	fb 01       	movw	r30, r22
    475a:	dc 01       	movw	r26, r24
    475c:	e4 0f       	add	r30, r20
    475e:	f5 1f       	adc	r31, r21
    4760:	a4 0f       	add	r26, r20
    4762:	b5 1f       	adc	r27, r21
    4764:	02 c0       	rjmp	.+4      	; 0x476a <.L_memmove_start>

00004766 <.L_memmove_loop>:
    4766:	02 90       	ld	r0, -Z
    4768:	0e 92       	st	-X, r0

0000476a <.L_memmove_start>:
    476a:	41 50       	subi	r20, 0x01	; 1
    476c:	50 40       	sbci	r21, 0x00	; 0
    476e:	d8 f7       	brcc	.-10     	; 0x4766 <.L_memmove_loop>
    4770:	08 95       	ret

00004772 <.L_memmove_fwd>:
    4772:	0c 94 d1 23 	jmp	0x47a2	; 0x47a2 <memcpy>

00004776 <memset>:
    4776:	dc 01       	movw	r26, r24
    4778:	01 c0       	rjmp	.+2      	; 0x477c <.L_memset_start>

0000477a <.L_memset_loop>:
    477a:	6d 93       	st	X+, r22

0000477c <.L_memset_start>:
    477c:	41 50       	subi	r20, 0x01	; 1
    477e:	50 40       	sbci	r21, 0x00	; 0
    4780:	e0 f7       	brcc	.-8      	; 0x477a <.L_memset_loop>
    4782:	08 95       	ret

00004784 <strncpy>:
    4784:	fb 01       	movw	r30, r22
    4786:	dc 01       	movw	r26, r24

00004788 <.L_strncpy_loop>:
    4788:	41 50       	subi	r20, 0x01	; 1
    478a:	50 40       	sbci	r21, 0x00	; 0
    478c:	48 f0       	brcs	.+18     	; 0x47a0 <.L_strncpy_done>
    478e:	01 90       	ld	r0, Z+
    4790:	0d 92       	st	X+, r0
    4792:	00 20       	and	r0, r0
    4794:	c9 f7       	brne	.-14     	; 0x4788 <.L_strncpy_loop>
    4796:	01 c0       	rjmp	.+2      	; 0x479a <.L_strncpy_clr_start>

00004798 <.L_strncpy_clr_loop>:
    4798:	1d 92       	st	X+, r1

0000479a <.L_strncpy_clr_start>:
    479a:	41 50       	subi	r20, 0x01	; 1
    479c:	50 40       	sbci	r21, 0x00	; 0
    479e:	e0 f7       	brcc	.-8      	; 0x4798 <.L_strncpy_clr_loop>

000047a0 <.L_strncpy_done>:
    47a0:	08 95       	ret

000047a2 <memcpy>:
    47a2:	fb 01       	movw	r30, r22
    47a4:	dc 01       	movw	r26, r24
    47a6:	02 c0       	rjmp	.+4      	; 0x47ac <.L_memcpy_start>

000047a8 <.L_memcpy_loop>:
    47a8:	01 90       	ld	r0, Z+
    47aa:	0d 92       	st	X+, r0

000047ac <.L_memcpy_start>:
    47ac:	41 50       	subi	r20, 0x01	; 1
    47ae:	50 40       	sbci	r21, 0x00	; 0
    47b0:	d8 f7       	brcc	.-10     	; 0x47a8 <.L_memcpy_loop>
    47b2:	08 95       	ret

000047b4 <eeprom_read_block>:
    47b4:	dc 01       	movw	r26, r24
    47b6:	cb 01       	movw	r24, r22

000047b8 <eeprom_read_blraw>:
    47b8:	fc 01       	movw	r30, r24

000047ba <.L1^B1>:
    47ba:	e1 99       	sbic	0x1c, 1	; 28
    47bc:	fe cf       	rjmp	.-4      	; 0x47ba <.L1^B1>
    47be:	06 c0       	rjmp	.+12     	; 0x47cc <.L3^B1>

000047c0 <.L2^B1>:
    47c0:	ff bb       	out	0x1f, r31	; 31
    47c2:	ee bb       	out	0x1e, r30	; 30
    47c4:	e0 9a       	sbi	0x1c, 0	; 28
    47c6:	31 96       	adiw	r30, 0x01	; 1
    47c8:	0d b2       	in	r0, 0x1d	; 29
    47ca:	0d 92       	st	X+, r0

000047cc <.L3^B1>:
    47cc:	41 50       	subi	r20, 0x01	; 1
    47ce:	50 40       	sbci	r21, 0x00	; 0
    47d0:	b8 f7       	brcc	.-18     	; 0x47c0 <.L2^B1>
    47d2:	08 95       	ret

000047d4 <eeprom_update_block>:
    47d4:	dc 01       	movw	r26, r24
    47d6:	a4 0f       	add	r26, r20
    47d8:	b5 1f       	adc	r27, r21
    47da:	41 50       	subi	r20, 0x01	; 1
    47dc:	50 40       	sbci	r21, 0x00	; 0
    47de:	48 f0       	brcs	.+18     	; 0x47f2 <.L3^B1>
    47e0:	cb 01       	movw	r24, r22
    47e2:	84 0f       	add	r24, r20
    47e4:	95 1f       	adc	r25, r21

000047e6 <.L1^B1>:
    47e6:	2e 91       	ld	r18, -X
    47e8:	0e 94 fb 23 	call	0x47f6	; 0x47f6 <eeprom_update_r18>
    47ec:	41 50       	subi	r20, 0x01	; 1
    47ee:	50 40       	sbci	r21, 0x00	; 0
    47f0:	d0 f7       	brcc	.-12     	; 0x47e6 <.L1^B1>

000047f2 <.L3^B1>:
    47f2:	08 95       	ret

000047f4 <eeprom_update_byte>:
    47f4:	26 2f       	mov	r18, r22

000047f6 <eeprom_update_r18>:
    47f6:	e1 99       	sbic	0x1c, 1	; 28
    47f8:	fe cf       	rjmp	.-4      	; 0x47f6 <eeprom_update_r18>
    47fa:	9f bb       	out	0x1f, r25	; 31
    47fc:	8e bb       	out	0x1e, r24	; 30
    47fe:	e0 9a       	sbi	0x1c, 0	; 28
    4800:	01 97       	sbiw	r24, 0x01	; 1
    4802:	0d b2       	in	r0, 0x1d	; 29
    4804:	02 16       	cp	r0, r18
    4806:	31 f0       	breq	.+12     	; 0x4814 <.L2^B1>
    4808:	2d bb       	out	0x1d, r18	; 29
    480a:	0f b6       	in	r0, 0x3f	; 63
    480c:	f8 94       	cli
    480e:	e2 9a       	sbi	0x1c, 2	; 28
    4810:	e1 9a       	sbi	0x1c, 1	; 28
    4812:	0f be       	out	0x3f, r0	; 63

00004814 <.L2^B1>:
    4814:	08 95       	ret

00004816 <_exit>:
    4816:	f8 94       	cli

00004818 <__stop_program>:
    4818:	ff cf       	rjmp	.-2      	; 0x4818 <__stop_program>
